ARM GAS  C:\Users\Estudi\AppData\Local\Temp\ccgnIlRK.s 			page 1


   1              		.cpu cortex-m7
   2              		.eabi_attribute 28, 1
   3              		.eabi_attribute 20, 1
   4              		.eabi_attribute 21, 1
   5              		.eabi_attribute 23, 3
   6              		.eabi_attribute 24, 1
   7              		.eabi_attribute 25, 1
   8              		.eabi_attribute 26, 1
   9              		.eabi_attribute 30, 2
  10              		.eabi_attribute 34, 1
  11              		.eabi_attribute 18, 4
  12              		.file	"TTrack.cpp"
  13              		.text
  14              	.Ltext0:
  15              		.cfi_sections	.debug_frame
  16              		.section	.text._ZN6TTrack10initialiseEv,"ax",%progbits
  17              		.align	1
  18              		.p2align 2,,3
  19              		.global	_ZN6TTrack10initialiseEv
  20              		.arch armv7e-m
  21              		.syntax unified
  22              		.thumb
  23              		.thumb_func
  24              		.fpu fpv5-d16
  26              	_ZN6TTrack10initialiseEv:
  27              	.LVL0:
  28              	.LFB4738:
  29              		.file 1 "src/TTrack.cpp"
   1:src/TTrack.cpp **** #include "TTrack.h"
   2:src/TTrack.cpp **** #include <cmath>
   3:src/TTrack.cpp **** 
   4:src/TTrack.cpp **** TTrack::TTrack() : odf(EnergyDifference, Hanning)
   5:src/TTrack.cpp **** {
   6:src/TTrack.cpp ****     initialise();
   7:src/TTrack.cpp **** }
   8:src/TTrack.cpp **** //================================================
   9:src/TTrack.cpp **** void TTrack::initialise()
  10:src/TTrack.cpp **** {
  30              		.loc 1 10 1 view -0
  31              		.cfi_startproc
  32              		@ args = 0, pretend = 0, frame = 8
  33              		@ frame_needed = 0, uses_anonymous_args = 0
  11:src/TTrack.cpp **** 
  12:src/TTrack.cpp ****     pi = 3.14159265358979323846264338327950288;
  34              		.loc 1 12 5 view .LVU1
  10:src/TTrack.cpp **** 
  35              		.loc 1 10 1 is_stmt 0 view .LVU2
  36 0000 2DE9F043 		push	{r4, r5, r6, r7, r8, r9, lr}
  37              		.cfi_def_cfa_offset 28
  38              		.cfi_offset 4, -28
  39              		.cfi_offset 5, -24
  40              		.cfi_offset 6, -20
  41              		.cfi_offset 7, -16
  42              		.cfi_offset 8, -12
  43              		.cfi_offset 9, -8
  44              		.cfi_offset 14, -4
  45              		.loc 1 12 8 view .LVU3
ARM GAS  C:\Users\Estudi\AppData\Local\Temp\ccgnIlRK.s 			page 2


  46 0004 00F54056 		add	r6, r0, #12288
  47 0008 41F22405 		movw	r5, #4132
  13:src/TTrack.cpp **** 
  14:src/TTrack.cpp ****     hopSize = 512;
  15:src/TTrack.cpp **** 
  16:src/TTrack.cpp ****     framesUntilTempoDisplay = 1024;
  48              		.loc 1 16 29 view .LVU4
  49 000c 00F58043 		add	r3, r0, #16384
  14:src/TTrack.cpp **** 
  50              		.loc 1 14 13 view .LVU5
  51 0010 4FF40074 		mov	r4, #512
  52              		.loc 1 16 29 view .LVU6
  53 0014 4FF48062 		mov	r2, #1024
  12:src/TTrack.cpp **** 
  54              		.loc 1 12 8 view .LVU7
  55 0018 4F4F     		ldr	r7, .L17+24
  10:src/TTrack.cpp **** 
  56              		.loc 1 10 1 view .LVU8
  57 001a 8146     		mov	r9, r0
  58 001c 0544     		add	r5, r5, r0
  12:src/TTrack.cpp **** 
  59              		.loc 1 12 8 view .LVU9
  60 001e 06F58960 		add	r0, r6, #1096
  61              	.LVL1:
  17:src/TTrack.cpp ****     beatPeriod = 0.0f;
  62              		.loc 1 17 16 view .LVU10
  63 0022 0021     		movs	r1, #0
  10:src/TTrack.cpp **** 
  64              		.loc 1 10 1 view .LVU11
  65 0024 2DED028B 		vpush.64	{d8}
  66              		.cfi_def_cfa_offset 36
  67              		.cfi_offset 80, -36
  68              		.cfi_offset 81, -32
  12:src/TTrack.cpp **** 
  69              		.loc 1 12 8 view .LVU12
  70 0028 0760     		str	r7, [r0]	@ float
  14:src/TTrack.cpp **** 
  71              		.loc 1 14 5 is_stmt 1 view .LVU13
  10:src/TTrack.cpp **** 
  72              		.loc 1 10 1 is_stmt 0 view .LVU14
  73 002a 83B0     		sub	sp, sp, #12
  74              		.cfi_def_cfa_offset 48
  14:src/TTrack.cpp **** 
  75              		.loc 1 14 13 view .LVU15
  76 002c C6F84044 		str	r4, [r6, #1088]
  16:src/TTrack.cpp ****     beatPeriod = 0.0f;
  77              		.loc 1 16 5 is_stmt 1 view .LVU16
  78              	.LBB214:
  18:src/TTrack.cpp ****     estimatedTempo = 0.0f;
  19:src/TTrack.cpp ****     
  20:src/TTrack.cpp ****     float rayleighParameter = 43;
  21:src/TTrack.cpp **** 
  22:src/TTrack.cpp ****     estimatedTempo = 120.0f;
  23:src/TTrack.cpp **** 
  24:src/TTrack.cpp ****     for (int i = 0; i < 128; i++)
  79              		.loc 1 24 14 is_stmt 0 view .LVU17
  80 0030 0024     		movs	r4, #0
ARM GAS  C:\Users\Estudi\AppData\Local\Temp\ccgnIlRK.s 			page 3


  81              	.LBE214:
  16:src/TTrack.cpp ****     beatPeriod = 0.0f;
  82              		.loc 1 16 29 view .LVU18
  83 0032 C3F8982E 		str	r2, [r3, #3736]
  17:src/TTrack.cpp ****     estimatedTempo = 0.0f;
  84              		.loc 1 17 5 is_stmt 1 view .LVU19
  17:src/TTrack.cpp ****     estimatedTempo = 0.0f;
  85              		.loc 1 17 16 is_stmt 0 view .LVU20
  86 0036 03F56962 		add	r2, r3, #3728
  22:src/TTrack.cpp **** 
  87              		.loc 1 22 20 view .LVU21
  88 003a 03F69463 		addw	r3, r3, #3732
  17:src/TTrack.cpp ****     estimatedTempo = 0.0f;
  89              		.loc 1 17 16 view .LVU22
  90 003e 1160     		str	r1, [r2]	@ float
  18:src/TTrack.cpp ****     estimatedTempo = 0.0f;
  91              		.loc 1 18 5 is_stmt 1 view .LVU23
  20:src/TTrack.cpp **** 
  92              		.loc 1 20 5 view .LVU24
  93              	.LVL2:
  22:src/TTrack.cpp **** 
  94              		.loc 1 22 5 view .LVU25
  22:src/TTrack.cpp **** 
  95              		.loc 1 22 20 is_stmt 0 view .LVU26
  96 0040 464A     		ldr	r2, .L17+28
  97 0042 1A60     		str	r2, [r3]	@ float
  98              		.loc 1 24 5 is_stmt 1 view .LVU27
  99              	.LVL3:
 100              	.LBB218:
 101              		.loc 1 24 23 view .LVU28
 102              	.L2:
  25:src/TTrack.cpp ****     {
  26:src/TTrack.cpp ****         weightingVector[i] = ((float) i / pow(rayleighParameter, 2)) * exp(-1 * pow((float) -i, 2) 
 103              		.loc 1 26 9 discriminator 2 view .LVU29
 104              	.LBB215:
 105              	.LBI215:
 106              		.file 2 "c:\\program files\\daisytoolchain\\arm-none-eabi\\include\\c++\\10.2.1\\cmath"
   1:c:\program files\daisytoolchain\arm-none-eabi\include\c++\10.2.1\cmath **** // -*- C++ -*- C forwarding header.
   2:c:\program files\daisytoolchain\arm-none-eabi\include\c++\10.2.1\cmath **** 
   3:c:\program files\daisytoolchain\arm-none-eabi\include\c++\10.2.1\cmath **** // Copyright (C) 1997-2020 Free Software Foundation, Inc.
   4:c:\program files\daisytoolchain\arm-none-eabi\include\c++\10.2.1\cmath **** //
   5:c:\program files\daisytoolchain\arm-none-eabi\include\c++\10.2.1\cmath **** // This file is part of the GNU ISO C++ Library.  This library is free
   6:c:\program files\daisytoolchain\arm-none-eabi\include\c++\10.2.1\cmath **** // software; you can redistribute it and/or modify it under the
   7:c:\program files\daisytoolchain\arm-none-eabi\include\c++\10.2.1\cmath **** // terms of the GNU General Public License as published by the
   8:c:\program files\daisytoolchain\arm-none-eabi\include\c++\10.2.1\cmath **** // Free Software Foundation; either version 3, or (at your option)
   9:c:\program files\daisytoolchain\arm-none-eabi\include\c++\10.2.1\cmath **** // any later version.
  10:c:\program files\daisytoolchain\arm-none-eabi\include\c++\10.2.1\cmath **** 
  11:c:\program files\daisytoolchain\arm-none-eabi\include\c++\10.2.1\cmath **** // This library is distributed in the hope that it will be useful,
  12:c:\program files\daisytoolchain\arm-none-eabi\include\c++\10.2.1\cmath **** // but WITHOUT ANY WARRANTY; without even the implied warranty of
  13:c:\program files\daisytoolchain\arm-none-eabi\include\c++\10.2.1\cmath **** // MERCHANTABILITY or FITNESS FOR A PARTICULAR PURPOSE.  See the
  14:c:\program files\daisytoolchain\arm-none-eabi\include\c++\10.2.1\cmath **** // GNU General Public License for more details.
  15:c:\program files\daisytoolchain\arm-none-eabi\include\c++\10.2.1\cmath **** 
  16:c:\program files\daisytoolchain\arm-none-eabi\include\c++\10.2.1\cmath **** // Under Section 7 of GPL version 3, you are granted additional
  17:c:\program files\daisytoolchain\arm-none-eabi\include\c++\10.2.1\cmath **** // permissions described in the GCC Runtime Library Exception, version
  18:c:\program files\daisytoolchain\arm-none-eabi\include\c++\10.2.1\cmath **** // 3.1, as published by the Free Software Foundation.
  19:c:\program files\daisytoolchain\arm-none-eabi\include\c++\10.2.1\cmath **** 
  20:c:\program files\daisytoolchain\arm-none-eabi\include\c++\10.2.1\cmath **** // You should have received a copy of the GNU General Public License and
ARM GAS  C:\Users\Estudi\AppData\Local\Temp\ccgnIlRK.s 			page 4


  21:c:\program files\daisytoolchain\arm-none-eabi\include\c++\10.2.1\cmath **** // a copy of the GCC Runtime Library Exception along with this program;
  22:c:\program files\daisytoolchain\arm-none-eabi\include\c++\10.2.1\cmath **** // see the files COPYING3 and COPYING.RUNTIME respectively.  If not, see
  23:c:\program files\daisytoolchain\arm-none-eabi\include\c++\10.2.1\cmath **** // <http://www.gnu.org/licenses/>.
  24:c:\program files\daisytoolchain\arm-none-eabi\include\c++\10.2.1\cmath **** 
  25:c:\program files\daisytoolchain\arm-none-eabi\include\c++\10.2.1\cmath **** /** @file include/cmath
  26:c:\program files\daisytoolchain\arm-none-eabi\include\c++\10.2.1\cmath ****  *  This is a Standard C++ Library file.  You should @c \#include this file
  27:c:\program files\daisytoolchain\arm-none-eabi\include\c++\10.2.1\cmath ****  *  in your programs, rather than any of the @a *.h implementation files.
  28:c:\program files\daisytoolchain\arm-none-eabi\include\c++\10.2.1\cmath ****  *
  29:c:\program files\daisytoolchain\arm-none-eabi\include\c++\10.2.1\cmath ****  *  This is the C++ version of the Standard C Library header @c math.h,
  30:c:\program files\daisytoolchain\arm-none-eabi\include\c++\10.2.1\cmath ****  *  and its contents are (mostly) the same as that header, but are all
  31:c:\program files\daisytoolchain\arm-none-eabi\include\c++\10.2.1\cmath ****  *  contained in the namespace @c std (except for names which are defined
  32:c:\program files\daisytoolchain\arm-none-eabi\include\c++\10.2.1\cmath ****  *  as macros in C).
  33:c:\program files\daisytoolchain\arm-none-eabi\include\c++\10.2.1\cmath ****  */
  34:c:\program files\daisytoolchain\arm-none-eabi\include\c++\10.2.1\cmath **** 
  35:c:\program files\daisytoolchain\arm-none-eabi\include\c++\10.2.1\cmath **** //
  36:c:\program files\daisytoolchain\arm-none-eabi\include\c++\10.2.1\cmath **** // ISO C++ 14882: 26.5  C library
  37:c:\program files\daisytoolchain\arm-none-eabi\include\c++\10.2.1\cmath **** //
  38:c:\program files\daisytoolchain\arm-none-eabi\include\c++\10.2.1\cmath **** 
  39:c:\program files\daisytoolchain\arm-none-eabi\include\c++\10.2.1\cmath **** #pragma GCC system_header
  40:c:\program files\daisytoolchain\arm-none-eabi\include\c++\10.2.1\cmath **** 
  41:c:\program files\daisytoolchain\arm-none-eabi\include\c++\10.2.1\cmath **** #include <bits/c++config.h>
  42:c:\program files\daisytoolchain\arm-none-eabi\include\c++\10.2.1\cmath **** #include <bits/cpp_type_traits.h>
  43:c:\program files\daisytoolchain\arm-none-eabi\include\c++\10.2.1\cmath **** #include <ext/type_traits.h>
  44:c:\program files\daisytoolchain\arm-none-eabi\include\c++\10.2.1\cmath **** #define _GLIBCXX_INCLUDE_NEXT_C_HEADERS
  45:c:\program files\daisytoolchain\arm-none-eabi\include\c++\10.2.1\cmath **** #include_next <math.h>
  46:c:\program files\daisytoolchain\arm-none-eabi\include\c++\10.2.1\cmath **** #undef _GLIBCXX_INCLUDE_NEXT_C_HEADERS
  47:c:\program files\daisytoolchain\arm-none-eabi\include\c++\10.2.1\cmath **** #include <bits/std_abs.h>
  48:c:\program files\daisytoolchain\arm-none-eabi\include\c++\10.2.1\cmath **** 
  49:c:\program files\daisytoolchain\arm-none-eabi\include\c++\10.2.1\cmath **** #ifndef _GLIBCXX_CMATH
  50:c:\program files\daisytoolchain\arm-none-eabi\include\c++\10.2.1\cmath **** #define _GLIBCXX_CMATH 1
  51:c:\program files\daisytoolchain\arm-none-eabi\include\c++\10.2.1\cmath **** 
  52:c:\program files\daisytoolchain\arm-none-eabi\include\c++\10.2.1\cmath **** // Get rid of those macros defined in <math.h> in lieu of real functions.
  53:c:\program files\daisytoolchain\arm-none-eabi\include\c++\10.2.1\cmath **** #undef div
  54:c:\program files\daisytoolchain\arm-none-eabi\include\c++\10.2.1\cmath **** #undef acos
  55:c:\program files\daisytoolchain\arm-none-eabi\include\c++\10.2.1\cmath **** #undef asin
  56:c:\program files\daisytoolchain\arm-none-eabi\include\c++\10.2.1\cmath **** #undef atan
  57:c:\program files\daisytoolchain\arm-none-eabi\include\c++\10.2.1\cmath **** #undef atan2
  58:c:\program files\daisytoolchain\arm-none-eabi\include\c++\10.2.1\cmath **** #undef ceil
  59:c:\program files\daisytoolchain\arm-none-eabi\include\c++\10.2.1\cmath **** #undef cos
  60:c:\program files\daisytoolchain\arm-none-eabi\include\c++\10.2.1\cmath **** #undef cosh
  61:c:\program files\daisytoolchain\arm-none-eabi\include\c++\10.2.1\cmath **** #undef exp
  62:c:\program files\daisytoolchain\arm-none-eabi\include\c++\10.2.1\cmath **** #undef fabs
  63:c:\program files\daisytoolchain\arm-none-eabi\include\c++\10.2.1\cmath **** #undef floor
  64:c:\program files\daisytoolchain\arm-none-eabi\include\c++\10.2.1\cmath **** #undef fmod
  65:c:\program files\daisytoolchain\arm-none-eabi\include\c++\10.2.1\cmath **** #undef frexp
  66:c:\program files\daisytoolchain\arm-none-eabi\include\c++\10.2.1\cmath **** #undef ldexp
  67:c:\program files\daisytoolchain\arm-none-eabi\include\c++\10.2.1\cmath **** #undef log
  68:c:\program files\daisytoolchain\arm-none-eabi\include\c++\10.2.1\cmath **** #undef log10
  69:c:\program files\daisytoolchain\arm-none-eabi\include\c++\10.2.1\cmath **** #undef modf
  70:c:\program files\daisytoolchain\arm-none-eabi\include\c++\10.2.1\cmath **** #undef pow
  71:c:\program files\daisytoolchain\arm-none-eabi\include\c++\10.2.1\cmath **** #undef sin
  72:c:\program files\daisytoolchain\arm-none-eabi\include\c++\10.2.1\cmath **** #undef sinh
  73:c:\program files\daisytoolchain\arm-none-eabi\include\c++\10.2.1\cmath **** #undef sqrt
  74:c:\program files\daisytoolchain\arm-none-eabi\include\c++\10.2.1\cmath **** #undef tan
  75:c:\program files\daisytoolchain\arm-none-eabi\include\c++\10.2.1\cmath **** #undef tanh
  76:c:\program files\daisytoolchain\arm-none-eabi\include\c++\10.2.1\cmath **** 
  77:c:\program files\daisytoolchain\arm-none-eabi\include\c++\10.2.1\cmath **** extern "C++"
ARM GAS  C:\Users\Estudi\AppData\Local\Temp\ccgnIlRK.s 			page 5


  78:c:\program files\daisytoolchain\arm-none-eabi\include\c++\10.2.1\cmath **** {
  79:c:\program files\daisytoolchain\arm-none-eabi\include\c++\10.2.1\cmath **** namespace std _GLIBCXX_VISIBILITY(default)
  80:c:\program files\daisytoolchain\arm-none-eabi\include\c++\10.2.1\cmath **** {
  81:c:\program files\daisytoolchain\arm-none-eabi\include\c++\10.2.1\cmath **** _GLIBCXX_BEGIN_NAMESPACE_VERSION
  82:c:\program files\daisytoolchain\arm-none-eabi\include\c++\10.2.1\cmath **** 
  83:c:\program files\daisytoolchain\arm-none-eabi\include\c++\10.2.1\cmath ****   using ::acos;
  84:c:\program files\daisytoolchain\arm-none-eabi\include\c++\10.2.1\cmath **** 
  85:c:\program files\daisytoolchain\arm-none-eabi\include\c++\10.2.1\cmath **** #ifndef __CORRECT_ISO_CPP_MATH_H_PROTO
  86:c:\program files\daisytoolchain\arm-none-eabi\include\c++\10.2.1\cmath ****   inline _GLIBCXX_CONSTEXPR float
  87:c:\program files\daisytoolchain\arm-none-eabi\include\c++\10.2.1\cmath ****   acos(float __x)
  88:c:\program files\daisytoolchain\arm-none-eabi\include\c++\10.2.1\cmath ****   { return __builtin_acosf(__x); }
  89:c:\program files\daisytoolchain\arm-none-eabi\include\c++\10.2.1\cmath **** 
  90:c:\program files\daisytoolchain\arm-none-eabi\include\c++\10.2.1\cmath ****   inline _GLIBCXX_CONSTEXPR long double
  91:c:\program files\daisytoolchain\arm-none-eabi\include\c++\10.2.1\cmath ****   acos(long double __x)
  92:c:\program files\daisytoolchain\arm-none-eabi\include\c++\10.2.1\cmath ****   { return __builtin_acosl(__x); }
  93:c:\program files\daisytoolchain\arm-none-eabi\include\c++\10.2.1\cmath **** #endif
  94:c:\program files\daisytoolchain\arm-none-eabi\include\c++\10.2.1\cmath **** 
  95:c:\program files\daisytoolchain\arm-none-eabi\include\c++\10.2.1\cmath ****   template<typename _Tp>
  96:c:\program files\daisytoolchain\arm-none-eabi\include\c++\10.2.1\cmath ****     inline _GLIBCXX_CONSTEXPR
  97:c:\program files\daisytoolchain\arm-none-eabi\include\c++\10.2.1\cmath ****     typename __gnu_cxx::__enable_if<__is_integer<_Tp>::__value, 
  98:c:\program files\daisytoolchain\arm-none-eabi\include\c++\10.2.1\cmath ****                                     double>::__type
  99:c:\program files\daisytoolchain\arm-none-eabi\include\c++\10.2.1\cmath ****     acos(_Tp __x)
 100:c:\program files\daisytoolchain\arm-none-eabi\include\c++\10.2.1\cmath ****     { return __builtin_acos(__x); }
 101:c:\program files\daisytoolchain\arm-none-eabi\include\c++\10.2.1\cmath **** 
 102:c:\program files\daisytoolchain\arm-none-eabi\include\c++\10.2.1\cmath ****   using ::asin;
 103:c:\program files\daisytoolchain\arm-none-eabi\include\c++\10.2.1\cmath **** 
 104:c:\program files\daisytoolchain\arm-none-eabi\include\c++\10.2.1\cmath **** #ifndef __CORRECT_ISO_CPP_MATH_H_PROTO
 105:c:\program files\daisytoolchain\arm-none-eabi\include\c++\10.2.1\cmath ****   inline _GLIBCXX_CONSTEXPR float
 106:c:\program files\daisytoolchain\arm-none-eabi\include\c++\10.2.1\cmath ****   asin(float __x)
 107:c:\program files\daisytoolchain\arm-none-eabi\include\c++\10.2.1\cmath ****   { return __builtin_asinf(__x); }
 108:c:\program files\daisytoolchain\arm-none-eabi\include\c++\10.2.1\cmath **** 
 109:c:\program files\daisytoolchain\arm-none-eabi\include\c++\10.2.1\cmath ****   inline _GLIBCXX_CONSTEXPR long double
 110:c:\program files\daisytoolchain\arm-none-eabi\include\c++\10.2.1\cmath ****   asin(long double __x)
 111:c:\program files\daisytoolchain\arm-none-eabi\include\c++\10.2.1\cmath ****   { return __builtin_asinl(__x); }
 112:c:\program files\daisytoolchain\arm-none-eabi\include\c++\10.2.1\cmath **** #endif
 113:c:\program files\daisytoolchain\arm-none-eabi\include\c++\10.2.1\cmath **** 
 114:c:\program files\daisytoolchain\arm-none-eabi\include\c++\10.2.1\cmath ****   template<typename _Tp>
 115:c:\program files\daisytoolchain\arm-none-eabi\include\c++\10.2.1\cmath ****     inline _GLIBCXX_CONSTEXPR
 116:c:\program files\daisytoolchain\arm-none-eabi\include\c++\10.2.1\cmath ****     typename __gnu_cxx::__enable_if<__is_integer<_Tp>::__value,
 117:c:\program files\daisytoolchain\arm-none-eabi\include\c++\10.2.1\cmath ****                                     double>::__type
 118:c:\program files\daisytoolchain\arm-none-eabi\include\c++\10.2.1\cmath ****     asin(_Tp __x)
 119:c:\program files\daisytoolchain\arm-none-eabi\include\c++\10.2.1\cmath ****     { return __builtin_asin(__x); }
 120:c:\program files\daisytoolchain\arm-none-eabi\include\c++\10.2.1\cmath **** 
 121:c:\program files\daisytoolchain\arm-none-eabi\include\c++\10.2.1\cmath ****   using ::atan;
 122:c:\program files\daisytoolchain\arm-none-eabi\include\c++\10.2.1\cmath **** 
 123:c:\program files\daisytoolchain\arm-none-eabi\include\c++\10.2.1\cmath **** #ifndef __CORRECT_ISO_CPP_MATH_H_PROTO
 124:c:\program files\daisytoolchain\arm-none-eabi\include\c++\10.2.1\cmath ****   inline _GLIBCXX_CONSTEXPR float
 125:c:\program files\daisytoolchain\arm-none-eabi\include\c++\10.2.1\cmath ****   atan(float __x)
 126:c:\program files\daisytoolchain\arm-none-eabi\include\c++\10.2.1\cmath ****   { return __builtin_atanf(__x); }
 127:c:\program files\daisytoolchain\arm-none-eabi\include\c++\10.2.1\cmath **** 
 128:c:\program files\daisytoolchain\arm-none-eabi\include\c++\10.2.1\cmath ****   inline _GLIBCXX_CONSTEXPR long double
 129:c:\program files\daisytoolchain\arm-none-eabi\include\c++\10.2.1\cmath ****   atan(long double __x)
 130:c:\program files\daisytoolchain\arm-none-eabi\include\c++\10.2.1\cmath ****   { return __builtin_atanl(__x); }
 131:c:\program files\daisytoolchain\arm-none-eabi\include\c++\10.2.1\cmath **** #endif
 132:c:\program files\daisytoolchain\arm-none-eabi\include\c++\10.2.1\cmath **** 
 133:c:\program files\daisytoolchain\arm-none-eabi\include\c++\10.2.1\cmath ****   template<typename _Tp>
 134:c:\program files\daisytoolchain\arm-none-eabi\include\c++\10.2.1\cmath ****     inline _GLIBCXX_CONSTEXPR
ARM GAS  C:\Users\Estudi\AppData\Local\Temp\ccgnIlRK.s 			page 6


 135:c:\program files\daisytoolchain\arm-none-eabi\include\c++\10.2.1\cmath ****     typename __gnu_cxx::__enable_if<__is_integer<_Tp>::__value,
 136:c:\program files\daisytoolchain\arm-none-eabi\include\c++\10.2.1\cmath ****                                     double>::__type
 137:c:\program files\daisytoolchain\arm-none-eabi\include\c++\10.2.1\cmath ****     atan(_Tp __x)
 138:c:\program files\daisytoolchain\arm-none-eabi\include\c++\10.2.1\cmath ****     { return __builtin_atan(__x); }
 139:c:\program files\daisytoolchain\arm-none-eabi\include\c++\10.2.1\cmath **** 
 140:c:\program files\daisytoolchain\arm-none-eabi\include\c++\10.2.1\cmath ****   using ::atan2;
 141:c:\program files\daisytoolchain\arm-none-eabi\include\c++\10.2.1\cmath **** 
 142:c:\program files\daisytoolchain\arm-none-eabi\include\c++\10.2.1\cmath **** #ifndef __CORRECT_ISO_CPP_MATH_H_PROTO
 143:c:\program files\daisytoolchain\arm-none-eabi\include\c++\10.2.1\cmath ****   inline _GLIBCXX_CONSTEXPR float
 144:c:\program files\daisytoolchain\arm-none-eabi\include\c++\10.2.1\cmath ****   atan2(float __y, float __x)
 145:c:\program files\daisytoolchain\arm-none-eabi\include\c++\10.2.1\cmath ****   { return __builtin_atan2f(__y, __x); }
 146:c:\program files\daisytoolchain\arm-none-eabi\include\c++\10.2.1\cmath **** 
 147:c:\program files\daisytoolchain\arm-none-eabi\include\c++\10.2.1\cmath ****   inline _GLIBCXX_CONSTEXPR long double
 148:c:\program files\daisytoolchain\arm-none-eabi\include\c++\10.2.1\cmath ****   atan2(long double __y, long double __x)
 149:c:\program files\daisytoolchain\arm-none-eabi\include\c++\10.2.1\cmath ****   { return __builtin_atan2l(__y, __x); }
 150:c:\program files\daisytoolchain\arm-none-eabi\include\c++\10.2.1\cmath **** #endif
 151:c:\program files\daisytoolchain\arm-none-eabi\include\c++\10.2.1\cmath **** 
 152:c:\program files\daisytoolchain\arm-none-eabi\include\c++\10.2.1\cmath ****   template<typename _Tp, typename _Up>
 153:c:\program files\daisytoolchain\arm-none-eabi\include\c++\10.2.1\cmath ****     inline _GLIBCXX_CONSTEXPR
 154:c:\program files\daisytoolchain\arm-none-eabi\include\c++\10.2.1\cmath ****     typename __gnu_cxx::__promote_2<_Tp, _Up>::__type
 155:c:\program files\daisytoolchain\arm-none-eabi\include\c++\10.2.1\cmath ****     atan2(_Tp __y, _Up __x)
 156:c:\program files\daisytoolchain\arm-none-eabi\include\c++\10.2.1\cmath ****     {
 157:c:\program files\daisytoolchain\arm-none-eabi\include\c++\10.2.1\cmath ****       typedef typename __gnu_cxx::__promote_2<_Tp, _Up>::__type __type;
 158:c:\program files\daisytoolchain\arm-none-eabi\include\c++\10.2.1\cmath ****       return atan2(__type(__y), __type(__x));
 159:c:\program files\daisytoolchain\arm-none-eabi\include\c++\10.2.1\cmath ****     }
 160:c:\program files\daisytoolchain\arm-none-eabi\include\c++\10.2.1\cmath **** 
 161:c:\program files\daisytoolchain\arm-none-eabi\include\c++\10.2.1\cmath ****   using ::ceil;
 162:c:\program files\daisytoolchain\arm-none-eabi\include\c++\10.2.1\cmath **** 
 163:c:\program files\daisytoolchain\arm-none-eabi\include\c++\10.2.1\cmath **** #ifndef __CORRECT_ISO_CPP_MATH_H_PROTO
 164:c:\program files\daisytoolchain\arm-none-eabi\include\c++\10.2.1\cmath ****   inline _GLIBCXX_CONSTEXPR float
 165:c:\program files\daisytoolchain\arm-none-eabi\include\c++\10.2.1\cmath ****   ceil(float __x)
 166:c:\program files\daisytoolchain\arm-none-eabi\include\c++\10.2.1\cmath ****   { return __builtin_ceilf(__x); }
 167:c:\program files\daisytoolchain\arm-none-eabi\include\c++\10.2.1\cmath **** 
 168:c:\program files\daisytoolchain\arm-none-eabi\include\c++\10.2.1\cmath ****   inline _GLIBCXX_CONSTEXPR long double
 169:c:\program files\daisytoolchain\arm-none-eabi\include\c++\10.2.1\cmath ****   ceil(long double __x)
 170:c:\program files\daisytoolchain\arm-none-eabi\include\c++\10.2.1\cmath ****   { return __builtin_ceill(__x); }
 171:c:\program files\daisytoolchain\arm-none-eabi\include\c++\10.2.1\cmath **** #endif
 172:c:\program files\daisytoolchain\arm-none-eabi\include\c++\10.2.1\cmath **** 
 173:c:\program files\daisytoolchain\arm-none-eabi\include\c++\10.2.1\cmath ****   template<typename _Tp>
 174:c:\program files\daisytoolchain\arm-none-eabi\include\c++\10.2.1\cmath ****     inline _GLIBCXX_CONSTEXPR
 175:c:\program files\daisytoolchain\arm-none-eabi\include\c++\10.2.1\cmath ****     typename __gnu_cxx::__enable_if<__is_integer<_Tp>::__value, 
 176:c:\program files\daisytoolchain\arm-none-eabi\include\c++\10.2.1\cmath ****                                     double>::__type
 177:c:\program files\daisytoolchain\arm-none-eabi\include\c++\10.2.1\cmath ****     ceil(_Tp __x)
 178:c:\program files\daisytoolchain\arm-none-eabi\include\c++\10.2.1\cmath ****     { return __builtin_ceil(__x); }
 179:c:\program files\daisytoolchain\arm-none-eabi\include\c++\10.2.1\cmath **** 
 180:c:\program files\daisytoolchain\arm-none-eabi\include\c++\10.2.1\cmath ****   using ::cos;
 181:c:\program files\daisytoolchain\arm-none-eabi\include\c++\10.2.1\cmath **** 
 182:c:\program files\daisytoolchain\arm-none-eabi\include\c++\10.2.1\cmath **** #ifndef __CORRECT_ISO_CPP_MATH_H_PROTO
 183:c:\program files\daisytoolchain\arm-none-eabi\include\c++\10.2.1\cmath ****   inline _GLIBCXX_CONSTEXPR float
 184:c:\program files\daisytoolchain\arm-none-eabi\include\c++\10.2.1\cmath ****   cos(float __x)
 185:c:\program files\daisytoolchain\arm-none-eabi\include\c++\10.2.1\cmath ****   { return __builtin_cosf(__x); }
 186:c:\program files\daisytoolchain\arm-none-eabi\include\c++\10.2.1\cmath **** 
 187:c:\program files\daisytoolchain\arm-none-eabi\include\c++\10.2.1\cmath ****   inline _GLIBCXX_CONSTEXPR long double
 188:c:\program files\daisytoolchain\arm-none-eabi\include\c++\10.2.1\cmath ****   cos(long double __x)
 189:c:\program files\daisytoolchain\arm-none-eabi\include\c++\10.2.1\cmath ****   { return __builtin_cosl(__x); }
 190:c:\program files\daisytoolchain\arm-none-eabi\include\c++\10.2.1\cmath **** #endif
 191:c:\program files\daisytoolchain\arm-none-eabi\include\c++\10.2.1\cmath **** 
ARM GAS  C:\Users\Estudi\AppData\Local\Temp\ccgnIlRK.s 			page 7


 192:c:\program files\daisytoolchain\arm-none-eabi\include\c++\10.2.1\cmath ****   template<typename _Tp>
 193:c:\program files\daisytoolchain\arm-none-eabi\include\c++\10.2.1\cmath ****     inline _GLIBCXX_CONSTEXPR
 194:c:\program files\daisytoolchain\arm-none-eabi\include\c++\10.2.1\cmath ****     typename __gnu_cxx::__enable_if<__is_integer<_Tp>::__value,
 195:c:\program files\daisytoolchain\arm-none-eabi\include\c++\10.2.1\cmath ****                                     double>::__type
 196:c:\program files\daisytoolchain\arm-none-eabi\include\c++\10.2.1\cmath ****     cos(_Tp __x)
 197:c:\program files\daisytoolchain\arm-none-eabi\include\c++\10.2.1\cmath ****     { return __builtin_cos(__x); }
 198:c:\program files\daisytoolchain\arm-none-eabi\include\c++\10.2.1\cmath **** 
 199:c:\program files\daisytoolchain\arm-none-eabi\include\c++\10.2.1\cmath ****   using ::cosh;
 200:c:\program files\daisytoolchain\arm-none-eabi\include\c++\10.2.1\cmath **** 
 201:c:\program files\daisytoolchain\arm-none-eabi\include\c++\10.2.1\cmath **** #ifndef __CORRECT_ISO_CPP_MATH_H_PROTO
 202:c:\program files\daisytoolchain\arm-none-eabi\include\c++\10.2.1\cmath ****   inline _GLIBCXX_CONSTEXPR float
 203:c:\program files\daisytoolchain\arm-none-eabi\include\c++\10.2.1\cmath ****   cosh(float __x)
 204:c:\program files\daisytoolchain\arm-none-eabi\include\c++\10.2.1\cmath ****   { return __builtin_coshf(__x); }
 205:c:\program files\daisytoolchain\arm-none-eabi\include\c++\10.2.1\cmath **** 
 206:c:\program files\daisytoolchain\arm-none-eabi\include\c++\10.2.1\cmath ****   inline _GLIBCXX_CONSTEXPR long double
 207:c:\program files\daisytoolchain\arm-none-eabi\include\c++\10.2.1\cmath ****   cosh(long double __x)
 208:c:\program files\daisytoolchain\arm-none-eabi\include\c++\10.2.1\cmath ****   { return __builtin_coshl(__x); }
 209:c:\program files\daisytoolchain\arm-none-eabi\include\c++\10.2.1\cmath **** #endif
 210:c:\program files\daisytoolchain\arm-none-eabi\include\c++\10.2.1\cmath **** 
 211:c:\program files\daisytoolchain\arm-none-eabi\include\c++\10.2.1\cmath ****   template<typename _Tp>
 212:c:\program files\daisytoolchain\arm-none-eabi\include\c++\10.2.1\cmath ****     inline _GLIBCXX_CONSTEXPR
 213:c:\program files\daisytoolchain\arm-none-eabi\include\c++\10.2.1\cmath ****     typename __gnu_cxx::__enable_if<__is_integer<_Tp>::__value,
 214:c:\program files\daisytoolchain\arm-none-eabi\include\c++\10.2.1\cmath ****                                     double>::__type
 215:c:\program files\daisytoolchain\arm-none-eabi\include\c++\10.2.1\cmath ****     cosh(_Tp __x)
 216:c:\program files\daisytoolchain\arm-none-eabi\include\c++\10.2.1\cmath ****     { return __builtin_cosh(__x); }
 217:c:\program files\daisytoolchain\arm-none-eabi\include\c++\10.2.1\cmath **** 
 218:c:\program files\daisytoolchain\arm-none-eabi\include\c++\10.2.1\cmath ****   using ::exp;
 219:c:\program files\daisytoolchain\arm-none-eabi\include\c++\10.2.1\cmath **** 
 220:c:\program files\daisytoolchain\arm-none-eabi\include\c++\10.2.1\cmath **** #ifndef __CORRECT_ISO_CPP_MATH_H_PROTO
 221:c:\program files\daisytoolchain\arm-none-eabi\include\c++\10.2.1\cmath ****   inline _GLIBCXX_CONSTEXPR float
 222:c:\program files\daisytoolchain\arm-none-eabi\include\c++\10.2.1\cmath ****   exp(float __x)
 223:c:\program files\daisytoolchain\arm-none-eabi\include\c++\10.2.1\cmath ****   { return __builtin_expf(__x); }
 224:c:\program files\daisytoolchain\arm-none-eabi\include\c++\10.2.1\cmath **** 
 225:c:\program files\daisytoolchain\arm-none-eabi\include\c++\10.2.1\cmath ****   inline _GLIBCXX_CONSTEXPR long double
 226:c:\program files\daisytoolchain\arm-none-eabi\include\c++\10.2.1\cmath ****   exp(long double __x)
 227:c:\program files\daisytoolchain\arm-none-eabi\include\c++\10.2.1\cmath ****   { return __builtin_expl(__x); }
 228:c:\program files\daisytoolchain\arm-none-eabi\include\c++\10.2.1\cmath **** #endif
 229:c:\program files\daisytoolchain\arm-none-eabi\include\c++\10.2.1\cmath **** 
 230:c:\program files\daisytoolchain\arm-none-eabi\include\c++\10.2.1\cmath ****   template<typename _Tp>
 231:c:\program files\daisytoolchain\arm-none-eabi\include\c++\10.2.1\cmath ****     inline _GLIBCXX_CONSTEXPR
 232:c:\program files\daisytoolchain\arm-none-eabi\include\c++\10.2.1\cmath ****     typename __gnu_cxx::__enable_if<__is_integer<_Tp>::__value,
 233:c:\program files\daisytoolchain\arm-none-eabi\include\c++\10.2.1\cmath ****                                     double>::__type
 234:c:\program files\daisytoolchain\arm-none-eabi\include\c++\10.2.1\cmath ****     exp(_Tp __x)
 235:c:\program files\daisytoolchain\arm-none-eabi\include\c++\10.2.1\cmath ****     { return __builtin_exp(__x); }
 236:c:\program files\daisytoolchain\arm-none-eabi\include\c++\10.2.1\cmath **** 
 237:c:\program files\daisytoolchain\arm-none-eabi\include\c++\10.2.1\cmath ****   using ::fabs;
 238:c:\program files\daisytoolchain\arm-none-eabi\include\c++\10.2.1\cmath **** 
 239:c:\program files\daisytoolchain\arm-none-eabi\include\c++\10.2.1\cmath **** #ifndef __CORRECT_ISO_CPP_MATH_H_PROTO
 240:c:\program files\daisytoolchain\arm-none-eabi\include\c++\10.2.1\cmath ****   inline _GLIBCXX_CONSTEXPR float
 241:c:\program files\daisytoolchain\arm-none-eabi\include\c++\10.2.1\cmath ****   fabs(float __x)
 242:c:\program files\daisytoolchain\arm-none-eabi\include\c++\10.2.1\cmath ****   { return __builtin_fabsf(__x); }
 243:c:\program files\daisytoolchain\arm-none-eabi\include\c++\10.2.1\cmath **** 
 244:c:\program files\daisytoolchain\arm-none-eabi\include\c++\10.2.1\cmath ****   inline _GLIBCXX_CONSTEXPR long double
 245:c:\program files\daisytoolchain\arm-none-eabi\include\c++\10.2.1\cmath ****   fabs(long double __x)
 246:c:\program files\daisytoolchain\arm-none-eabi\include\c++\10.2.1\cmath ****   { return __builtin_fabsl(__x); }
 247:c:\program files\daisytoolchain\arm-none-eabi\include\c++\10.2.1\cmath **** #endif
 248:c:\program files\daisytoolchain\arm-none-eabi\include\c++\10.2.1\cmath **** 
ARM GAS  C:\Users\Estudi\AppData\Local\Temp\ccgnIlRK.s 			page 8


 249:c:\program files\daisytoolchain\arm-none-eabi\include\c++\10.2.1\cmath ****   template<typename _Tp>
 250:c:\program files\daisytoolchain\arm-none-eabi\include\c++\10.2.1\cmath ****     inline _GLIBCXX_CONSTEXPR
 251:c:\program files\daisytoolchain\arm-none-eabi\include\c++\10.2.1\cmath ****     typename __gnu_cxx::__enable_if<__is_integer<_Tp>::__value,
 252:c:\program files\daisytoolchain\arm-none-eabi\include\c++\10.2.1\cmath ****                                     double>::__type
 253:c:\program files\daisytoolchain\arm-none-eabi\include\c++\10.2.1\cmath ****     fabs(_Tp __x)
 254:c:\program files\daisytoolchain\arm-none-eabi\include\c++\10.2.1\cmath ****     { return __builtin_fabs(__x); }
 255:c:\program files\daisytoolchain\arm-none-eabi\include\c++\10.2.1\cmath **** 
 256:c:\program files\daisytoolchain\arm-none-eabi\include\c++\10.2.1\cmath ****   using ::floor;
 257:c:\program files\daisytoolchain\arm-none-eabi\include\c++\10.2.1\cmath **** 
 258:c:\program files\daisytoolchain\arm-none-eabi\include\c++\10.2.1\cmath **** #ifndef __CORRECT_ISO_CPP_MATH_H_PROTO
 259:c:\program files\daisytoolchain\arm-none-eabi\include\c++\10.2.1\cmath ****   inline _GLIBCXX_CONSTEXPR float
 260:c:\program files\daisytoolchain\arm-none-eabi\include\c++\10.2.1\cmath ****   floor(float __x)
 261:c:\program files\daisytoolchain\arm-none-eabi\include\c++\10.2.1\cmath ****   { return __builtin_floorf(__x); }
 262:c:\program files\daisytoolchain\arm-none-eabi\include\c++\10.2.1\cmath **** 
 263:c:\program files\daisytoolchain\arm-none-eabi\include\c++\10.2.1\cmath ****   inline _GLIBCXX_CONSTEXPR long double
 264:c:\program files\daisytoolchain\arm-none-eabi\include\c++\10.2.1\cmath ****   floor(long double __x)
 265:c:\program files\daisytoolchain\arm-none-eabi\include\c++\10.2.1\cmath ****   { return __builtin_floorl(__x); }
 266:c:\program files\daisytoolchain\arm-none-eabi\include\c++\10.2.1\cmath **** #endif
 267:c:\program files\daisytoolchain\arm-none-eabi\include\c++\10.2.1\cmath **** 
 268:c:\program files\daisytoolchain\arm-none-eabi\include\c++\10.2.1\cmath ****   template<typename _Tp>
 269:c:\program files\daisytoolchain\arm-none-eabi\include\c++\10.2.1\cmath ****     inline _GLIBCXX_CONSTEXPR
 270:c:\program files\daisytoolchain\arm-none-eabi\include\c++\10.2.1\cmath ****     typename __gnu_cxx::__enable_if<__is_integer<_Tp>::__value,
 271:c:\program files\daisytoolchain\arm-none-eabi\include\c++\10.2.1\cmath ****                                     double>::__type
 272:c:\program files\daisytoolchain\arm-none-eabi\include\c++\10.2.1\cmath ****     floor(_Tp __x)
 273:c:\program files\daisytoolchain\arm-none-eabi\include\c++\10.2.1\cmath ****     { return __builtin_floor(__x); }
 274:c:\program files\daisytoolchain\arm-none-eabi\include\c++\10.2.1\cmath **** 
 275:c:\program files\daisytoolchain\arm-none-eabi\include\c++\10.2.1\cmath ****   using ::fmod;
 276:c:\program files\daisytoolchain\arm-none-eabi\include\c++\10.2.1\cmath **** 
 277:c:\program files\daisytoolchain\arm-none-eabi\include\c++\10.2.1\cmath **** #ifndef __CORRECT_ISO_CPP_MATH_H_PROTO
 278:c:\program files\daisytoolchain\arm-none-eabi\include\c++\10.2.1\cmath ****   inline _GLIBCXX_CONSTEXPR float
 279:c:\program files\daisytoolchain\arm-none-eabi\include\c++\10.2.1\cmath ****   fmod(float __x, float __y)
 280:c:\program files\daisytoolchain\arm-none-eabi\include\c++\10.2.1\cmath ****   { return __builtin_fmodf(__x, __y); }
 281:c:\program files\daisytoolchain\arm-none-eabi\include\c++\10.2.1\cmath **** 
 282:c:\program files\daisytoolchain\arm-none-eabi\include\c++\10.2.1\cmath ****   inline _GLIBCXX_CONSTEXPR long double
 283:c:\program files\daisytoolchain\arm-none-eabi\include\c++\10.2.1\cmath ****   fmod(long double __x, long double __y)
 284:c:\program files\daisytoolchain\arm-none-eabi\include\c++\10.2.1\cmath ****   { return __builtin_fmodl(__x, __y); }
 285:c:\program files\daisytoolchain\arm-none-eabi\include\c++\10.2.1\cmath **** #endif
 286:c:\program files\daisytoolchain\arm-none-eabi\include\c++\10.2.1\cmath **** 
 287:c:\program files\daisytoolchain\arm-none-eabi\include\c++\10.2.1\cmath ****   template<typename _Tp, typename _Up>
 288:c:\program files\daisytoolchain\arm-none-eabi\include\c++\10.2.1\cmath ****     inline _GLIBCXX_CONSTEXPR
 289:c:\program files\daisytoolchain\arm-none-eabi\include\c++\10.2.1\cmath ****     typename __gnu_cxx::__promote_2<_Tp, _Up>::__type
 290:c:\program files\daisytoolchain\arm-none-eabi\include\c++\10.2.1\cmath ****     fmod(_Tp __x, _Up __y)
 291:c:\program files\daisytoolchain\arm-none-eabi\include\c++\10.2.1\cmath ****     {
 292:c:\program files\daisytoolchain\arm-none-eabi\include\c++\10.2.1\cmath ****       typedef typename __gnu_cxx::__promote_2<_Tp, _Up>::__type __type;
 293:c:\program files\daisytoolchain\arm-none-eabi\include\c++\10.2.1\cmath ****       return fmod(__type(__x), __type(__y));
 294:c:\program files\daisytoolchain\arm-none-eabi\include\c++\10.2.1\cmath ****     }
 295:c:\program files\daisytoolchain\arm-none-eabi\include\c++\10.2.1\cmath **** 
 296:c:\program files\daisytoolchain\arm-none-eabi\include\c++\10.2.1\cmath ****   using ::frexp;
 297:c:\program files\daisytoolchain\arm-none-eabi\include\c++\10.2.1\cmath **** 
 298:c:\program files\daisytoolchain\arm-none-eabi\include\c++\10.2.1\cmath **** #ifndef __CORRECT_ISO_CPP_MATH_H_PROTO
 299:c:\program files\daisytoolchain\arm-none-eabi\include\c++\10.2.1\cmath ****   inline float
 300:c:\program files\daisytoolchain\arm-none-eabi\include\c++\10.2.1\cmath ****   frexp(float __x, int* __exp)
 301:c:\program files\daisytoolchain\arm-none-eabi\include\c++\10.2.1\cmath ****   { return __builtin_frexpf(__x, __exp); }
 302:c:\program files\daisytoolchain\arm-none-eabi\include\c++\10.2.1\cmath **** 
 303:c:\program files\daisytoolchain\arm-none-eabi\include\c++\10.2.1\cmath ****   inline long double
 304:c:\program files\daisytoolchain\arm-none-eabi\include\c++\10.2.1\cmath ****   frexp(long double __x, int* __exp)
 305:c:\program files\daisytoolchain\arm-none-eabi\include\c++\10.2.1\cmath ****   { return __builtin_frexpl(__x, __exp); }
ARM GAS  C:\Users\Estudi\AppData\Local\Temp\ccgnIlRK.s 			page 9


 306:c:\program files\daisytoolchain\arm-none-eabi\include\c++\10.2.1\cmath **** #endif
 307:c:\program files\daisytoolchain\arm-none-eabi\include\c++\10.2.1\cmath **** 
 308:c:\program files\daisytoolchain\arm-none-eabi\include\c++\10.2.1\cmath ****   template<typename _Tp>
 309:c:\program files\daisytoolchain\arm-none-eabi\include\c++\10.2.1\cmath ****     inline _GLIBCXX_CONSTEXPR
 310:c:\program files\daisytoolchain\arm-none-eabi\include\c++\10.2.1\cmath ****     typename __gnu_cxx::__enable_if<__is_integer<_Tp>::__value, 
 311:c:\program files\daisytoolchain\arm-none-eabi\include\c++\10.2.1\cmath ****                                     double>::__type
 312:c:\program files\daisytoolchain\arm-none-eabi\include\c++\10.2.1\cmath ****     frexp(_Tp __x, int* __exp)
 313:c:\program files\daisytoolchain\arm-none-eabi\include\c++\10.2.1\cmath ****     { return __builtin_frexp(__x, __exp); }
 314:c:\program files\daisytoolchain\arm-none-eabi\include\c++\10.2.1\cmath **** 
 315:c:\program files\daisytoolchain\arm-none-eabi\include\c++\10.2.1\cmath ****   using ::ldexp;
 316:c:\program files\daisytoolchain\arm-none-eabi\include\c++\10.2.1\cmath **** 
 317:c:\program files\daisytoolchain\arm-none-eabi\include\c++\10.2.1\cmath **** #ifndef __CORRECT_ISO_CPP_MATH_H_PROTO
 318:c:\program files\daisytoolchain\arm-none-eabi\include\c++\10.2.1\cmath ****   inline _GLIBCXX_CONSTEXPR float
 319:c:\program files\daisytoolchain\arm-none-eabi\include\c++\10.2.1\cmath ****   ldexp(float __x, int __exp)
 320:c:\program files\daisytoolchain\arm-none-eabi\include\c++\10.2.1\cmath ****   { return __builtin_ldexpf(__x, __exp); }
 321:c:\program files\daisytoolchain\arm-none-eabi\include\c++\10.2.1\cmath **** 
 322:c:\program files\daisytoolchain\arm-none-eabi\include\c++\10.2.1\cmath ****   inline _GLIBCXX_CONSTEXPR long double
 323:c:\program files\daisytoolchain\arm-none-eabi\include\c++\10.2.1\cmath ****   ldexp(long double __x, int __exp)
 324:c:\program files\daisytoolchain\arm-none-eabi\include\c++\10.2.1\cmath ****   { return __builtin_ldexpl(__x, __exp); }
 325:c:\program files\daisytoolchain\arm-none-eabi\include\c++\10.2.1\cmath **** #endif
 326:c:\program files\daisytoolchain\arm-none-eabi\include\c++\10.2.1\cmath **** 
 327:c:\program files\daisytoolchain\arm-none-eabi\include\c++\10.2.1\cmath ****   template<typename _Tp>
 328:c:\program files\daisytoolchain\arm-none-eabi\include\c++\10.2.1\cmath ****     inline _GLIBCXX_CONSTEXPR
 329:c:\program files\daisytoolchain\arm-none-eabi\include\c++\10.2.1\cmath ****     typename __gnu_cxx::__enable_if<__is_integer<_Tp>::__value, 
 330:c:\program files\daisytoolchain\arm-none-eabi\include\c++\10.2.1\cmath ****                                     double>::__type
 331:c:\program files\daisytoolchain\arm-none-eabi\include\c++\10.2.1\cmath ****     ldexp(_Tp __x, int __exp)
 332:c:\program files\daisytoolchain\arm-none-eabi\include\c++\10.2.1\cmath ****     { return __builtin_ldexp(__x, __exp); }
 333:c:\program files\daisytoolchain\arm-none-eabi\include\c++\10.2.1\cmath **** 
 334:c:\program files\daisytoolchain\arm-none-eabi\include\c++\10.2.1\cmath ****   using ::log;
 335:c:\program files\daisytoolchain\arm-none-eabi\include\c++\10.2.1\cmath **** 
 336:c:\program files\daisytoolchain\arm-none-eabi\include\c++\10.2.1\cmath **** #ifndef __CORRECT_ISO_CPP_MATH_H_PROTO
 337:c:\program files\daisytoolchain\arm-none-eabi\include\c++\10.2.1\cmath ****   inline _GLIBCXX_CONSTEXPR float
 338:c:\program files\daisytoolchain\arm-none-eabi\include\c++\10.2.1\cmath ****   log(float __x)
 339:c:\program files\daisytoolchain\arm-none-eabi\include\c++\10.2.1\cmath ****   { return __builtin_logf(__x); }
 340:c:\program files\daisytoolchain\arm-none-eabi\include\c++\10.2.1\cmath **** 
 341:c:\program files\daisytoolchain\arm-none-eabi\include\c++\10.2.1\cmath ****   inline _GLIBCXX_CONSTEXPR long double
 342:c:\program files\daisytoolchain\arm-none-eabi\include\c++\10.2.1\cmath ****   log(long double __x)
 343:c:\program files\daisytoolchain\arm-none-eabi\include\c++\10.2.1\cmath ****   { return __builtin_logl(__x); }
 344:c:\program files\daisytoolchain\arm-none-eabi\include\c++\10.2.1\cmath **** #endif
 345:c:\program files\daisytoolchain\arm-none-eabi\include\c++\10.2.1\cmath **** 
 346:c:\program files\daisytoolchain\arm-none-eabi\include\c++\10.2.1\cmath ****   template<typename _Tp>
 347:c:\program files\daisytoolchain\arm-none-eabi\include\c++\10.2.1\cmath ****     inline _GLIBCXX_CONSTEXPR
 348:c:\program files\daisytoolchain\arm-none-eabi\include\c++\10.2.1\cmath ****     typename __gnu_cxx::__enable_if<__is_integer<_Tp>::__value, 
 349:c:\program files\daisytoolchain\arm-none-eabi\include\c++\10.2.1\cmath ****                                     double>::__type
 350:c:\program files\daisytoolchain\arm-none-eabi\include\c++\10.2.1\cmath ****     log(_Tp __x)
 351:c:\program files\daisytoolchain\arm-none-eabi\include\c++\10.2.1\cmath ****     { return __builtin_log(__x); }
 352:c:\program files\daisytoolchain\arm-none-eabi\include\c++\10.2.1\cmath **** 
 353:c:\program files\daisytoolchain\arm-none-eabi\include\c++\10.2.1\cmath ****   using ::log10;
 354:c:\program files\daisytoolchain\arm-none-eabi\include\c++\10.2.1\cmath **** 
 355:c:\program files\daisytoolchain\arm-none-eabi\include\c++\10.2.1\cmath **** #ifndef __CORRECT_ISO_CPP_MATH_H_PROTO
 356:c:\program files\daisytoolchain\arm-none-eabi\include\c++\10.2.1\cmath ****   inline _GLIBCXX_CONSTEXPR float
 357:c:\program files\daisytoolchain\arm-none-eabi\include\c++\10.2.1\cmath ****   log10(float __x)
 358:c:\program files\daisytoolchain\arm-none-eabi\include\c++\10.2.1\cmath ****   { return __builtin_log10f(__x); }
 359:c:\program files\daisytoolchain\arm-none-eabi\include\c++\10.2.1\cmath **** 
 360:c:\program files\daisytoolchain\arm-none-eabi\include\c++\10.2.1\cmath ****   inline _GLIBCXX_CONSTEXPR long double
 361:c:\program files\daisytoolchain\arm-none-eabi\include\c++\10.2.1\cmath ****   log10(long double __x)
 362:c:\program files\daisytoolchain\arm-none-eabi\include\c++\10.2.1\cmath ****   { return __builtin_log10l(__x); }
ARM GAS  C:\Users\Estudi\AppData\Local\Temp\ccgnIlRK.s 			page 10


 363:c:\program files\daisytoolchain\arm-none-eabi\include\c++\10.2.1\cmath **** #endif
 364:c:\program files\daisytoolchain\arm-none-eabi\include\c++\10.2.1\cmath **** 
 365:c:\program files\daisytoolchain\arm-none-eabi\include\c++\10.2.1\cmath ****   template<typename _Tp>
 366:c:\program files\daisytoolchain\arm-none-eabi\include\c++\10.2.1\cmath ****     inline _GLIBCXX_CONSTEXPR
 367:c:\program files\daisytoolchain\arm-none-eabi\include\c++\10.2.1\cmath ****     typename __gnu_cxx::__enable_if<__is_integer<_Tp>::__value,
 368:c:\program files\daisytoolchain\arm-none-eabi\include\c++\10.2.1\cmath ****                                     double>::__type
 369:c:\program files\daisytoolchain\arm-none-eabi\include\c++\10.2.1\cmath ****     log10(_Tp __x)
 370:c:\program files\daisytoolchain\arm-none-eabi\include\c++\10.2.1\cmath ****     { return __builtin_log10(__x); }
 371:c:\program files\daisytoolchain\arm-none-eabi\include\c++\10.2.1\cmath **** 
 372:c:\program files\daisytoolchain\arm-none-eabi\include\c++\10.2.1\cmath ****   using ::modf;
 373:c:\program files\daisytoolchain\arm-none-eabi\include\c++\10.2.1\cmath **** 
 374:c:\program files\daisytoolchain\arm-none-eabi\include\c++\10.2.1\cmath **** #ifndef __CORRECT_ISO_CPP_MATH_H_PROTO
 375:c:\program files\daisytoolchain\arm-none-eabi\include\c++\10.2.1\cmath ****   inline float
 376:c:\program files\daisytoolchain\arm-none-eabi\include\c++\10.2.1\cmath ****   modf(float __x, float* __iptr)
 377:c:\program files\daisytoolchain\arm-none-eabi\include\c++\10.2.1\cmath ****   { return __builtin_modff(__x, __iptr); }
 378:c:\program files\daisytoolchain\arm-none-eabi\include\c++\10.2.1\cmath **** 
 379:c:\program files\daisytoolchain\arm-none-eabi\include\c++\10.2.1\cmath ****   inline long double
 380:c:\program files\daisytoolchain\arm-none-eabi\include\c++\10.2.1\cmath ****   modf(long double __x, long double* __iptr)
 381:c:\program files\daisytoolchain\arm-none-eabi\include\c++\10.2.1\cmath ****   { return __builtin_modfl(__x, __iptr); }
 382:c:\program files\daisytoolchain\arm-none-eabi\include\c++\10.2.1\cmath **** #endif
 383:c:\program files\daisytoolchain\arm-none-eabi\include\c++\10.2.1\cmath **** 
 384:c:\program files\daisytoolchain\arm-none-eabi\include\c++\10.2.1\cmath ****   using ::pow;
 385:c:\program files\daisytoolchain\arm-none-eabi\include\c++\10.2.1\cmath **** 
 386:c:\program files\daisytoolchain\arm-none-eabi\include\c++\10.2.1\cmath **** #ifndef __CORRECT_ISO_CPP_MATH_H_PROTO
 387:c:\program files\daisytoolchain\arm-none-eabi\include\c++\10.2.1\cmath ****   inline _GLIBCXX_CONSTEXPR float
 388:c:\program files\daisytoolchain\arm-none-eabi\include\c++\10.2.1\cmath ****   pow(float __x, float __y)
 389:c:\program files\daisytoolchain\arm-none-eabi\include\c++\10.2.1\cmath ****   { return __builtin_powf(__x, __y); }
 390:c:\program files\daisytoolchain\arm-none-eabi\include\c++\10.2.1\cmath **** 
 391:c:\program files\daisytoolchain\arm-none-eabi\include\c++\10.2.1\cmath ****   inline _GLIBCXX_CONSTEXPR long double
 392:c:\program files\daisytoolchain\arm-none-eabi\include\c++\10.2.1\cmath ****   pow(long double __x, long double __y)
 393:c:\program files\daisytoolchain\arm-none-eabi\include\c++\10.2.1\cmath ****   { return __builtin_powl(__x, __y); }
 394:c:\program files\daisytoolchain\arm-none-eabi\include\c++\10.2.1\cmath **** 
 395:c:\program files\daisytoolchain\arm-none-eabi\include\c++\10.2.1\cmath **** #if __cplusplus < 201103L
 396:c:\program files\daisytoolchain\arm-none-eabi\include\c++\10.2.1\cmath ****   // _GLIBCXX_RESOLVE_LIB_DEFECTS
 397:c:\program files\daisytoolchain\arm-none-eabi\include\c++\10.2.1\cmath ****   // DR 550. What should the return type of pow(float,int) be?
 398:c:\program files\daisytoolchain\arm-none-eabi\include\c++\10.2.1\cmath ****   inline double
 399:c:\program files\daisytoolchain\arm-none-eabi\include\c++\10.2.1\cmath ****   pow(double __x, int __i)
 400:c:\program files\daisytoolchain\arm-none-eabi\include\c++\10.2.1\cmath ****   { return __builtin_powi(__x, __i); }
 401:c:\program files\daisytoolchain\arm-none-eabi\include\c++\10.2.1\cmath **** 
 402:c:\program files\daisytoolchain\arm-none-eabi\include\c++\10.2.1\cmath ****   inline float
 403:c:\program files\daisytoolchain\arm-none-eabi\include\c++\10.2.1\cmath ****   pow(float __x, int __n)
 404:c:\program files\daisytoolchain\arm-none-eabi\include\c++\10.2.1\cmath ****   { return __builtin_powif(__x, __n); }
 405:c:\program files\daisytoolchain\arm-none-eabi\include\c++\10.2.1\cmath **** 
 406:c:\program files\daisytoolchain\arm-none-eabi\include\c++\10.2.1\cmath ****   inline long double
 407:c:\program files\daisytoolchain\arm-none-eabi\include\c++\10.2.1\cmath ****   pow(long double __x, int __n)
 408:c:\program files\daisytoolchain\arm-none-eabi\include\c++\10.2.1\cmath ****   { return __builtin_powil(__x, __n); }
 409:c:\program files\daisytoolchain\arm-none-eabi\include\c++\10.2.1\cmath **** #endif
 410:c:\program files\daisytoolchain\arm-none-eabi\include\c++\10.2.1\cmath **** #endif
 411:c:\program files\daisytoolchain\arm-none-eabi\include\c++\10.2.1\cmath **** 
 412:c:\program files\daisytoolchain\arm-none-eabi\include\c++\10.2.1\cmath ****   template<typename _Tp, typename _Up>
 413:c:\program files\daisytoolchain\arm-none-eabi\include\c++\10.2.1\cmath ****     inline _GLIBCXX_CONSTEXPR
 414:c:\program files\daisytoolchain\arm-none-eabi\include\c++\10.2.1\cmath ****     typename __gnu_cxx::__promote_2<_Tp, _Up>::__type
 415:c:\program files\daisytoolchain\arm-none-eabi\include\c++\10.2.1\cmath ****     pow(_Tp __x, _Up __y)
 107              		.loc 2 415 5 discriminator 2 view .LVU30
 108              	.LBE215:
 109              		.loc 1 26 93 is_stmt 0 discriminator 2 view .LVU31
 110 0044 6342     		rsbs	r3, r4, #0
ARM GAS  C:\Users\Estudi\AppData\Local\Temp\ccgnIlRK.s 			page 11


 111 0046 07EE103A 		vmov	s14, r3	@ int
 112              		.loc 1 26 84 discriminator 2 view .LVU32
 113 004a B8EEC77A 		vcvt.f32.s32	s14, s14
 114              	.LVL4:
 115              		.loc 1 26 75 discriminator 2 view .LVU33
 116 004e 9FED3C0B 		vldr.64	d0, .L17
 117              	.LBB217:
 118              	.LBB216:
 416:c:\program files\daisytoolchain\arm-none-eabi\include\c++\10.2.1\cmath ****     {
 417:c:\program files\daisytoolchain\arm-none-eabi\include\c++\10.2.1\cmath ****       typedef typename __gnu_cxx::__promote_2<_Tp, _Up>::__type __type;
 418:c:\program files\daisytoolchain\arm-none-eabi\include\c++\10.2.1\cmath ****       return pow(__type(__x), __type(__y));
 119              		.loc 2 418 17 discriminator 2 view .LVU34
 120 0052 B7EEC77A 		vcvt.f64.f32	d7, s14
 121              	.LVL5:
 122              		.loc 2 418 17 discriminator 2 view .LVU35
 123              	.LBE216:
 124              	.LBE217:
 125              		.loc 1 26 79 discriminator 2 view .LVU36
 126 0056 27EE477B 		vnmul.f64	d7, d7, d7
 127              		.loc 1 26 75 discriminator 2 view .LVU37
 128 005a 87EE000B 		vdiv.f64	d0, d7, d0
 129 005e FFF7FEFF 		bl	exp
 130              	.LVL6:
 131              		.loc 1 26 31 discriminator 2 view .LVU38
 132 0062 07EE904A 		vmov	s15, r4	@ int
  24:src/TTrack.cpp ****     {
 133              		.loc 1 24 5 discriminator 2 view .LVU39
 134 0066 0134     		adds	r4, r4, #1
 135              	.LVL7:
 136              		.loc 1 26 31 discriminator 2 view .LVU40
 137 0068 B8EEE76A 		vcvt.f32.s32	s12, s15
  24:src/TTrack.cpp ****     {
 138              		.loc 1 24 23 discriminator 2 view .LVU41
 139 006c 802C     		cmp	r4, #128
 140              		.loc 1 26 41 discriminator 2 view .LVU42
 141 006e 9FED365B 		vldr.64	d5, .L17+8
 142              		.loc 1 26 31 discriminator 2 view .LVU43
 143 0072 B7EEC66A 		vcvt.f64.f32	d6, s12
 144              		.loc 1 26 41 discriminator 2 view .LVU44
 145 0076 86EE057B 		vdiv.f64	d7, d6, d5
 146              		.loc 1 26 70 discriminator 2 view .LVU45
 147 007a 27EE007B 		vmul.f64	d7, d7, d0
 148 007e B7EEC77B 		vcvt.f32.f64	s14, d7
 149 0082 A5EC017A 		vstmia.32	r5!, {s14}
  24:src/TTrack.cpp ****     {
 150              		.loc 1 24 5 is_stmt 1 discriminator 2 view .LVU46
 151              	.LVL8:
  24:src/TTrack.cpp ****     {
 152              		.loc 1 24 23 discriminator 2 view .LVU47
 153 0086 DDD1     		bne	.L2
 154 0088 41F2C823 		movw	r3, #4808
 155 008c 41F26C31 		movw	r1, #4972
 156 0090 4B44     		add	r3, r3, r9
 157 0092 4944     		add	r1, r1, r9
 158              	.L3:
 159              	.LBE218:
 160              	.LBB219:
ARM GAS  C:\Users\Estudi\AppData\Local\Temp\ccgnIlRK.s 			page 12


  27:src/TTrack.cpp ****     }
  28:src/TTrack.cpp **** 
  29:src/TTrack.cpp ****     for (int i = 0; i < 41; i++)
  30:src/TTrack.cpp ****     {
  31:src/TTrack.cpp ****         prevDelta[i] = 1.0f;
 161              		.loc 1 31 9 discriminator 2 view .LVU48
 162              		.loc 1 31 22 is_stmt 0 discriminator 2 view .LVU49
 163 0094 4FF07E52 		mov	r2, #1065353216
 164 0098 43F8042B 		str	r2, [r3], #4	@ float
  29:src/TTrack.cpp ****     {
 165              		.loc 1 29 5 is_stmt 1 discriminator 2 view .LVU50
  29:src/TTrack.cpp ****     {
 166              		.loc 1 29 23 discriminator 2 view .LVU51
 167 009c 9942     		cmp	r1, r3
 168 009e F9D1     		bne	.L3
 169 00a0 43F24C48 		movw	r8, #13388
 170              	.LBE219:
 171              	.LBB220:
  32:src/TTrack.cpp ****     }
  33:src/TTrack.cpp **** 
  34:src/TTrack.cpp ****     float t_mu = 41/2;
  35:src/TTrack.cpp ****     float m_sig = 41/8;
  36:src/TTrack.cpp ****     float x;
  37:src/TTrack.cpp **** 
  38:src/TTrack.cpp ****     for (int i = 0; i < 41; i++)
 172              		.loc 1 38 14 is_stmt 0 view .LVU52
 173 00a4 0027     		movs	r7, #0
 174 00a6 C844     		add	r8, r8, r9
 175              	.LVL9:
 176              	.L8:
 177              	.LBB221:
  39:src/TTrack.cpp ****     {
  40:src/TTrack.cpp ****         for (int j = 0; j < 41; j++)
 178              		.loc 1 40 27 is_stmt 1 view .LVU53
  41:src/TTrack.cpp ****         {
  42:src/TTrack.cpp ****             x = j + 1;
  43:src/TTrack.cpp ****             t_mu = i + 1;
 179              		.loc 1 43 22 is_stmt 0 view .LVU54
 180 00a8 0137     		adds	r7, r7, #1
 181              	.LVL10:
 182              		.loc 1 43 18 view .LVU55
 183 00aa 4546     		mov	r5, r8
  40:src/TTrack.cpp ****         {
 184              		.loc 1 40 18 view .LVU56
 185 00ac 0024     		movs	r4, #0
 186              		.loc 1 43 18 view .LVU57
 187 00ae 07EE907A 		vmov	s15, r7	@ int
 188 00b2 F8EEE78A 		vcvt.f32.s32	s17, s15
 189              	.LVL11:
 190              	.L7:
  42:src/TTrack.cpp ****             t_mu = i + 1;
 191              		.loc 1 42 13 is_stmt 1 discriminator 2 view .LVU58
  44:src/TTrack.cpp ****             tempoTransitionMatrix[i][j] = (1 / (m_sig * sqrt(2 * pi))) * exp(-1 * pow((x - t_mu), 2
 192              		.loc 1 44 66 is_stmt 0 discriminator 2 view .LVU59
 193 00b6 06F58963 		add	r3, r6, #1096
  42:src/TTrack.cpp ****             t_mu = i + 1;
 194              		.loc 1 42 19 discriminator 2 view .LVU60
ARM GAS  C:\Users\Estudi\AppData\Local\Temp\ccgnIlRK.s 			page 13


 195 00ba 0134     		adds	r4, r4, #1
 196              	.LVL12:
 197              		.loc 1 44 61 discriminator 2 view .LVU61
 198 00bc 93ED000A 		vldr.32	s0, [r3]
  42:src/TTrack.cpp ****             t_mu = i + 1;
 199              		.loc 1 42 15 discriminator 2 view .LVU62
 200 00c0 07EE904A 		vmov	s15, r4	@ int
 201              		.loc 1 44 61 discriminator 2 view .LVU63
 202 00c4 30EE000A 		vadd.f32	s0, s0, s0
  42:src/TTrack.cpp ****             t_mu = i + 1;
 203              		.loc 1 42 15 discriminator 2 view .LVU64
 204 00c8 B8EEE77A 		vcvt.f32.s32	s14, s15
 205              	.LVL13:
  43:src/TTrack.cpp ****             tempoTransitionMatrix[i][j] = (1 / (m_sig * sqrt(2 * pi))) * exp(-1 * pow((x - t_mu), 2
 206              		.loc 1 43 13 is_stmt 1 discriminator 2 view .LVU65
 207              		.loc 1 44 13 discriminator 2 view .LVU66
 208              	.LBB222:
 209              	.LBI222:
 419:c:\program files\daisytoolchain\arm-none-eabi\include\c++\10.2.1\cmath ****     }
 420:c:\program files\daisytoolchain\arm-none-eabi\include\c++\10.2.1\cmath **** 
 421:c:\program files\daisytoolchain\arm-none-eabi\include\c++\10.2.1\cmath ****   using ::sin;
 422:c:\program files\daisytoolchain\arm-none-eabi\include\c++\10.2.1\cmath **** 
 423:c:\program files\daisytoolchain\arm-none-eabi\include\c++\10.2.1\cmath **** #ifndef __CORRECT_ISO_CPP_MATH_H_PROTO
 424:c:\program files\daisytoolchain\arm-none-eabi\include\c++\10.2.1\cmath ****   inline _GLIBCXX_CONSTEXPR float
 425:c:\program files\daisytoolchain\arm-none-eabi\include\c++\10.2.1\cmath ****   sin(float __x)
 426:c:\program files\daisytoolchain\arm-none-eabi\include\c++\10.2.1\cmath ****   { return __builtin_sinf(__x); }
 427:c:\program files\daisytoolchain\arm-none-eabi\include\c++\10.2.1\cmath **** 
 428:c:\program files\daisytoolchain\arm-none-eabi\include\c++\10.2.1\cmath ****   inline _GLIBCXX_CONSTEXPR long double
 429:c:\program files\daisytoolchain\arm-none-eabi\include\c++\10.2.1\cmath ****   sin(long double __x)
 430:c:\program files\daisytoolchain\arm-none-eabi\include\c++\10.2.1\cmath ****   { return __builtin_sinl(__x); }
 431:c:\program files\daisytoolchain\arm-none-eabi\include\c++\10.2.1\cmath **** #endif
 432:c:\program files\daisytoolchain\arm-none-eabi\include\c++\10.2.1\cmath **** 
 433:c:\program files\daisytoolchain\arm-none-eabi\include\c++\10.2.1\cmath ****   template<typename _Tp>
 434:c:\program files\daisytoolchain\arm-none-eabi\include\c++\10.2.1\cmath ****     inline _GLIBCXX_CONSTEXPR
 435:c:\program files\daisytoolchain\arm-none-eabi\include\c++\10.2.1\cmath ****     typename __gnu_cxx::__enable_if<__is_integer<_Tp>::__value, 
 436:c:\program files\daisytoolchain\arm-none-eabi\include\c++\10.2.1\cmath ****                                     double>::__type
 437:c:\program files\daisytoolchain\arm-none-eabi\include\c++\10.2.1\cmath ****     sin(_Tp __x)
 438:c:\program files\daisytoolchain\arm-none-eabi\include\c++\10.2.1\cmath ****     { return __builtin_sin(__x); }
 439:c:\program files\daisytoolchain\arm-none-eabi\include\c++\10.2.1\cmath **** 
 440:c:\program files\daisytoolchain\arm-none-eabi\include\c++\10.2.1\cmath ****   using ::sinh;
 441:c:\program files\daisytoolchain\arm-none-eabi\include\c++\10.2.1\cmath **** 
 442:c:\program files\daisytoolchain\arm-none-eabi\include\c++\10.2.1\cmath **** #ifndef __CORRECT_ISO_CPP_MATH_H_PROTO
 443:c:\program files\daisytoolchain\arm-none-eabi\include\c++\10.2.1\cmath ****   inline _GLIBCXX_CONSTEXPR float
 444:c:\program files\daisytoolchain\arm-none-eabi\include\c++\10.2.1\cmath ****   sinh(float __x)
 445:c:\program files\daisytoolchain\arm-none-eabi\include\c++\10.2.1\cmath ****   { return __builtin_sinhf(__x); }
 446:c:\program files\daisytoolchain\arm-none-eabi\include\c++\10.2.1\cmath **** 
 447:c:\program files\daisytoolchain\arm-none-eabi\include\c++\10.2.1\cmath ****   inline _GLIBCXX_CONSTEXPR long double
 448:c:\program files\daisytoolchain\arm-none-eabi\include\c++\10.2.1\cmath ****   sinh(long double __x)
 449:c:\program files\daisytoolchain\arm-none-eabi\include\c++\10.2.1\cmath ****   { return __builtin_sinhl(__x); }
 450:c:\program files\daisytoolchain\arm-none-eabi\include\c++\10.2.1\cmath **** #endif
 451:c:\program files\daisytoolchain\arm-none-eabi\include\c++\10.2.1\cmath **** 
 452:c:\program files\daisytoolchain\arm-none-eabi\include\c++\10.2.1\cmath ****   template<typename _Tp>
 453:c:\program files\daisytoolchain\arm-none-eabi\include\c++\10.2.1\cmath ****     inline _GLIBCXX_CONSTEXPR
 454:c:\program files\daisytoolchain\arm-none-eabi\include\c++\10.2.1\cmath ****     typename __gnu_cxx::__enable_if<__is_integer<_Tp>::__value, 
 455:c:\program files\daisytoolchain\arm-none-eabi\include\c++\10.2.1\cmath ****                                     double>::__type
 456:c:\program files\daisytoolchain\arm-none-eabi\include\c++\10.2.1\cmath ****     sinh(_Tp __x)
 457:c:\program files\daisytoolchain\arm-none-eabi\include\c++\10.2.1\cmath ****     { return __builtin_sinh(__x); }
ARM GAS  C:\Users\Estudi\AppData\Local\Temp\ccgnIlRK.s 			page 14


 458:c:\program files\daisytoolchain\arm-none-eabi\include\c++\10.2.1\cmath **** 
 459:c:\program files\daisytoolchain\arm-none-eabi\include\c++\10.2.1\cmath ****   using ::sqrt;
 460:c:\program files\daisytoolchain\arm-none-eabi\include\c++\10.2.1\cmath **** 
 461:c:\program files\daisytoolchain\arm-none-eabi\include\c++\10.2.1\cmath **** #ifndef __CORRECT_ISO_CPP_MATH_H_PROTO
 462:c:\program files\daisytoolchain\arm-none-eabi\include\c++\10.2.1\cmath ****   inline _GLIBCXX_CONSTEXPR float
 463:c:\program files\daisytoolchain\arm-none-eabi\include\c++\10.2.1\cmath ****   sqrt(float __x)
 210              		.loc 2 463 3 discriminator 2 view .LVU67
 211              	.LBB223:
 464:c:\program files\daisytoolchain\arm-none-eabi\include\c++\10.2.1\cmath ****   { return __builtin_sqrtf(__x); }
 212              		.loc 2 464 5 discriminator 2 view .LVU68
 213 00cc B5EE400A 		vcmp.f32	s0, #0
 214 00d0 F1EE10FA 		vmrs	APSR_nzcv, FPSCR
 215 00d4 28D4     		bmi	.L14
 216              		.loc 2 464 27 is_stmt 0 view .LVU69
 217 00d6 B1EEC08A 		vsqrt.f32	s16, s0
 218              	.LVL14:
 219              	.L6:
 220              		.loc 2 464 27 view .LVU70
 221              	.LBE223:
 222              	.LBE222:
 223              	.LBB225:
 224              	.LBI225:
 415:c:\program files\daisytoolchain\arm-none-eabi\include\c++\10.2.1\cmath ****     {
 225              		.loc 2 415 5 is_stmt 1 discriminator 2 view .LVU71
 226              	.LBE225:
 227              		.loc 1 44 86 is_stmt 0 discriminator 2 view .LVU72
 228 00da 37EE687A 		vsub.f32	s14, s14, s17
 229              	.LVL15:
 230              		.loc 1 44 77 discriminator 2 view .LVU73
 231 00de 9FED1C0B 		vldr.64	d0, .L17+16
 232              	.LBB227:
 233              	.LBB226:
 418:c:\program files\daisytoolchain\arm-none-eabi\include\c++\10.2.1\cmath ****     }
 234              		.loc 2 418 17 discriminator 2 view .LVU74
 235 00e2 B7EEC77A 		vcvt.f64.f32	d7, s14
 236              	.LVL16:
 418:c:\program files\daisytoolchain\arm-none-eabi\include\c++\10.2.1\cmath ****     }
 237              		.loc 2 418 17 discriminator 2 view .LVU75
 238              	.LBE226:
 239              	.LBE227:
 240              		.loc 1 44 81 discriminator 2 view .LVU76
 241 00e6 27EE477B 		vnmul.f64	d7, d7, d7
 242              		.loc 1 44 77 discriminator 2 view .LVU77
 243 00ea 87EE000B 		vdiv.f64	d0, d7, d0
 244 00ee FFF7FEFF 		bl	exp
 245              	.LVL17:
  40:src/TTrack.cpp ****         {
 246              		.loc 1 40 27 discriminator 2 view .LVU78
 247 00f2 292C     		cmp	r4, #41
 248              		.loc 1 44 55 discriminator 2 view .LVU79
 249 00f4 F1EE047A 		vmov.f32	s15, #5.0e+0
 250              		.loc 1 44 46 discriminator 2 view .LVU80
 251 00f8 B7EE007A 		vmov.f32	s14, #1.0e+0
 252              		.loc 1 44 55 discriminator 2 view .LVU81
 253 00fc 28EE278A 		vmul.f32	s16, s16, s15
 254              		.loc 1 44 46 discriminator 2 view .LVU82
 255 0100 C7EE087A 		vdiv.f32	s15, s14, s16
ARM GAS  C:\Users\Estudi\AppData\Local\Temp\ccgnIlRK.s 			page 15


 256 0104 B7EEE77A 		vcvt.f64.f32	d7, s15
 257              		.loc 1 44 72 discriminator 2 view .LVU83
 258 0108 27EE000B 		vmul.f64	d0, d7, d0
 259 010c B7EEC00B 		vcvt.f32.f64	s0, d0
 260 0110 A5EC010A 		vstmia.32	r5!, {s0}
  40:src/TTrack.cpp ****         {
 261              		.loc 1 40 9 is_stmt 1 discriminator 2 view .LVU84
 262              	.LVL18:
  40:src/TTrack.cpp ****         {
 263              		.loc 1 40 27 discriminator 2 view .LVU85
 264 0114 CFD1     		bne	.L7
 265              	.LBE221:
  38:src/TTrack.cpp ****     {
 266              		.loc 1 38 5 discriminator 2 view .LVU86
 267              	.LVL19:
  38:src/TTrack.cpp ****     {
 268              		.loc 1 38 23 discriminator 2 view .LVU87
 269 0116 292F     		cmp	r7, #41
 270 0118 08F1A408 		add	r8, r8, #164
 271 011c C4D1     		bne	.L8
 272              	.LBE220:
  45:src/TTrack.cpp ****         }
  46:src/TTrack.cpp ****     }
  47:src/TTrack.cpp **** 
  48:src/TTrack.cpp **** }
 273              		.loc 1 48 1 is_stmt 0 view .LVU88
 274 011e 03B0     		add	sp, sp, #12
 275              		.cfi_remember_state
 276              		.cfi_def_cfa_offset 36
 277              		@ sp needed
 278 0120 BDEC028B 		vldm	sp!, {d8}
 279              		.cfi_restore 80
 280              		.cfi_restore 81
 281              		.cfi_def_cfa_offset 28
 282 0124 BDE8F083 		pop	{r4, r5, r6, r7, r8, r9, pc}
 283              	.LVL20:
 284              	.L14:
 285              		.cfi_restore_state
 286              		.loc 1 48 1 view .LVU89
 287 0128 8DED017A 		vstr.32	s14, [sp, #4]	@ int
 288              	.LBB230:
 289              	.LBB229:
 290              	.LBB228:
 291              	.LBB224:
 292              		.loc 2 464 27 discriminator 2 view .LVU90
 293 012c FFF7FEFF 		bl	sqrtf
 294              	.LVL21:
 295              		.loc 2 464 27 discriminator 2 view .LVU91
 296 0130 9DED017A 		vldr.32	s14, [sp, #4]	@ int
 297 0134 B0EE408A 		vmov.f32	s16, s0
 298 0138 CFE7     		b	.L6
 299              	.L18:
 300 013a 00BFAFF3 		.align	3
 300      0080
 301              	.L17:
 302 0140 00000000 		.word	0
 303 0144 00E4AC40 		.word	1085072384
ARM GAS  C:\Users\Estudi\AppData\Local\Temp\ccgnIlRK.s 			page 16


 304 0148 00000000 		.word	0
 305 014c 00E49C40 		.word	1084023808
 306 0150 00000000 		.word	0
 307 0154 00004940 		.word	1078525952
 308 0158 DB0F4940 		.word	1078530011
 309 015c 0000F042 		.word	1123024896
 310              	.LBE224:
 311              	.LBE228:
 312              	.LBE229:
 313              	.LBE230:
 314              		.cfi_endproc
 315              	.LFE4738:
 317              		.section	.text._ZN6TTrackC2Ev,"ax",%progbits
 318              		.align	1
 319              		.p2align 2,,3
 320              		.global	_ZN6TTrackC2Ev
 321              		.syntax unified
 322              		.thumb
 323              		.thumb_func
 324              		.fpu fpv5-d16
 326              	_ZN6TTrackC2Ev:
 327              	.LVL22:
 328              	.LFB4736:
   4:src/TTrack.cpp **** {
 329              		.loc 1 4 1 is_stmt 1 view -0
 330              		.cfi_startproc
 331              		@ args = 0, pretend = 0, frame = 0
 332              		@ frame_needed = 0, uses_anonymous_args = 0
   4:src/TTrack.cpp **** {
 333              		.loc 1 4 1 is_stmt 0 view .LVU93
 334 0000 70B5     		push	{r4, r5, r6, lr}
 335              		.cfi_def_cfa_offset 16
 336              		.cfi_offset 4, -16
 337              		.cfi_offset 5, -12
 338              		.cfi_offset 6, -8
 339              		.cfi_offset 14, -4
   4:src/TTrack.cpp **** {
 340              		.loc 1 4 1 view .LVU94
 341 0002 0446     		mov	r4, r0
 342              	.LVL23:
 343              	.LBB231:
 344              	.LBB232:
 345              	.LBI232:
 346              		.file 3 "./lib/etl/include/etl/circular_buffer.h"
   1:./lib/etl/include/etl/circular_buffer.h **** ///\file
   2:./lib/etl/include/etl/circular_buffer.h **** 
   3:./lib/etl/include/etl/circular_buffer.h **** /******************************************************************************
   4:./lib/etl/include/etl/circular_buffer.h **** The MIT License(MIT)
   5:./lib/etl/include/etl/circular_buffer.h **** 
   6:./lib/etl/include/etl/circular_buffer.h **** Embedded Template Library.
   7:./lib/etl/include/etl/circular_buffer.h **** https://github.com/ETLCPP/etl
   8:./lib/etl/include/etl/circular_buffer.h **** https://www.etlcpp.com
   9:./lib/etl/include/etl/circular_buffer.h **** 
  10:./lib/etl/include/etl/circular_buffer.h **** Copyright(c) 2020 John Wellbelove
  11:./lib/etl/include/etl/circular_buffer.h **** 
  12:./lib/etl/include/etl/circular_buffer.h **** Permission is hereby granted, free of charge, to any person obtaining a copy
  13:./lib/etl/include/etl/circular_buffer.h **** of this software and associated documentation files(the "Software"), to deal
ARM GAS  C:\Users\Estudi\AppData\Local\Temp\ccgnIlRK.s 			page 17


  14:./lib/etl/include/etl/circular_buffer.h **** in the Software without restriction, including without limitation the rights
  15:./lib/etl/include/etl/circular_buffer.h **** to use, copy, modify, merge, publish, distribute, sublicense, and / or sell
  16:./lib/etl/include/etl/circular_buffer.h **** copies of the Software, and to permit persons to whom the Software is
  17:./lib/etl/include/etl/circular_buffer.h **** furnished to do so, subject to the following conditions :
  18:./lib/etl/include/etl/circular_buffer.h **** 
  19:./lib/etl/include/etl/circular_buffer.h **** The above copyright notice and this permission notice shall be included in all
  20:./lib/etl/include/etl/circular_buffer.h **** copies or substantial portions of the Software.
  21:./lib/etl/include/etl/circular_buffer.h **** 
  22:./lib/etl/include/etl/circular_buffer.h **** THE SOFTWARE IS PROVIDED "AS IS", WITHOUT WARRANTY OF ANY KIND, EXPRESS OR
  23:./lib/etl/include/etl/circular_buffer.h **** IMPLIED, INCLUDING BUT NOT LIMITED TO THE WARRANTIES OF MERCHANTABILITY,
  24:./lib/etl/include/etl/circular_buffer.h **** FITNESS FOR A PARTICULAR PURPOSE AND NONINFRINGEMENT.IN NO EVENT SHALL THE
  25:./lib/etl/include/etl/circular_buffer.h **** AUTHORS OR COPYRIGHT HOLDERS BE LIABLE FOR ANY CLAIM, DAMAGES OR OTHER
  26:./lib/etl/include/etl/circular_buffer.h **** LIABILITY, WHETHER IN AN ACTION OF CONTRACT, TORT OR OTHERWISE, ARISING FROM,
  27:./lib/etl/include/etl/circular_buffer.h **** OUT OF OR IN CONNECTION WITH THE SOFTWARE OR THE USE OR OTHER DEALINGS IN THE
  28:./lib/etl/include/etl/circular_buffer.h **** SOFTWARE.
  29:./lib/etl/include/etl/circular_buffer.h **** ******************************************************************************/
  30:./lib/etl/include/etl/circular_buffer.h **** 
  31:./lib/etl/include/etl/circular_buffer.h **** #ifndef ETL_CIRCULAR_BUFFER_INCLUDED
  32:./lib/etl/include/etl/circular_buffer.h **** #define ETL_CIRCULAR_BUFFER_INCLUDED
  33:./lib/etl/include/etl/circular_buffer.h **** 
  34:./lib/etl/include/etl/circular_buffer.h **** #include "platform.h"
  35:./lib/etl/include/etl/circular_buffer.h **** #include "vector.h"
  36:./lib/etl/include/etl/circular_buffer.h **** #include "exception.h"
  37:./lib/etl/include/etl/circular_buffer.h **** #include "error_handler.h"
  38:./lib/etl/include/etl/circular_buffer.h **** #include "memory.h"
  39:./lib/etl/include/etl/circular_buffer.h **** #include "memory_model.h"
  40:./lib/etl/include/etl/circular_buffer.h **** #include "type_traits.h"
  41:./lib/etl/include/etl/circular_buffer.h **** #include "iterator.h"
  42:./lib/etl/include/etl/circular_buffer.h **** #include "static_assert.h"
  43:./lib/etl/include/etl/circular_buffer.h **** #include "initializer_list.h"
  44:./lib/etl/include/etl/circular_buffer.h **** 
  45:./lib/etl/include/etl/circular_buffer.h **** namespace etl
  46:./lib/etl/include/etl/circular_buffer.h **** {
  47:./lib/etl/include/etl/circular_buffer.h ****   //***************************************************************************
  48:./lib/etl/include/etl/circular_buffer.h ****   /// Exception for the circular_buffer.
  49:./lib/etl/include/etl/circular_buffer.h ****   //***************************************************************************
  50:./lib/etl/include/etl/circular_buffer.h ****   class circular_buffer_exception : public etl::exception
  51:./lib/etl/include/etl/circular_buffer.h ****   {
  52:./lib/etl/include/etl/circular_buffer.h ****   public:
  53:./lib/etl/include/etl/circular_buffer.h **** 
  54:./lib/etl/include/etl/circular_buffer.h ****     circular_buffer_exception(string_type reason_, string_type file_name_, numeric_type line_number
  55:./lib/etl/include/etl/circular_buffer.h ****       : exception(reason_, file_name_, line_number_)
  56:./lib/etl/include/etl/circular_buffer.h ****     {
  57:./lib/etl/include/etl/circular_buffer.h ****     }
  58:./lib/etl/include/etl/circular_buffer.h ****   };
  59:./lib/etl/include/etl/circular_buffer.h **** 
  60:./lib/etl/include/etl/circular_buffer.h ****   //***************************************************************************
  61:./lib/etl/include/etl/circular_buffer.h ****   /// Empty exception for the circular_buffer.
  62:./lib/etl/include/etl/circular_buffer.h ****   //***************************************************************************
  63:./lib/etl/include/etl/circular_buffer.h ****   class circular_buffer_empty : public etl::circular_buffer_exception
  64:./lib/etl/include/etl/circular_buffer.h ****   {
  65:./lib/etl/include/etl/circular_buffer.h ****   public:
  66:./lib/etl/include/etl/circular_buffer.h **** 
  67:./lib/etl/include/etl/circular_buffer.h ****     circular_buffer_empty(string_type file_name_, numeric_type line_number_)
  68:./lib/etl/include/etl/circular_buffer.h ****       : etl::circular_buffer_exception(ETL_ERROR_TEXT("circular_buffer:empty", ETL_CIRCULAR_BUFFER_
  69:./lib/etl/include/etl/circular_buffer.h ****     {
  70:./lib/etl/include/etl/circular_buffer.h ****     }
ARM GAS  C:\Users\Estudi\AppData\Local\Temp\ccgnIlRK.s 			page 18


  71:./lib/etl/include/etl/circular_buffer.h ****   };
  72:./lib/etl/include/etl/circular_buffer.h **** 
  73:./lib/etl/include/etl/circular_buffer.h ****   //***************************************************************************
  74:./lib/etl/include/etl/circular_buffer.h ****   /// Incompatible type exception.
  75:./lib/etl/include/etl/circular_buffer.h ****   //***************************************************************************
  76:./lib/etl/include/etl/circular_buffer.h ****   class circular_buffer_incompatible_type : public circular_buffer_exception
  77:./lib/etl/include/etl/circular_buffer.h ****   {
  78:./lib/etl/include/etl/circular_buffer.h ****   public:
  79:./lib/etl/include/etl/circular_buffer.h **** 
  80:./lib/etl/include/etl/circular_buffer.h ****     circular_buffer_incompatible_type(string_type file_name_, numeric_type line_number_)
  81:./lib/etl/include/etl/circular_buffer.h ****       : circular_buffer_exception(ETL_ERROR_TEXT("circular_buffer:type", ETL_CIRCULAR_BUFFER_FILE_I
  82:./lib/etl/include/etl/circular_buffer.h ****     {
  83:./lib/etl/include/etl/circular_buffer.h ****     }
  84:./lib/etl/include/etl/circular_buffer.h ****   };
  85:./lib/etl/include/etl/circular_buffer.h **** 
  86:./lib/etl/include/etl/circular_buffer.h ****   //***************************************************************************
  87:./lib/etl/include/etl/circular_buffer.h ****   ///
  88:./lib/etl/include/etl/circular_buffer.h ****   //***************************************************************************
  89:./lib/etl/include/etl/circular_buffer.h ****   class circular_buffer_base
  90:./lib/etl/include/etl/circular_buffer.h ****   {
  91:./lib/etl/include/etl/circular_buffer.h ****   public:
  92:./lib/etl/include/etl/circular_buffer.h **** 
  93:./lib/etl/include/etl/circular_buffer.h ****     /// The type used for determining the size of queue.
  94:./lib/etl/include/etl/circular_buffer.h ****     typedef size_t size_type;
  95:./lib/etl/include/etl/circular_buffer.h **** 
  96:./lib/etl/include/etl/circular_buffer.h ****     //*************************************************************************
  97:./lib/etl/include/etl/circular_buffer.h ****     size_type size() const
  98:./lib/etl/include/etl/circular_buffer.h ****     {
  99:./lib/etl/include/etl/circular_buffer.h ****       return (in >= out) ? in - out : buffer_size - (out - in);
 100:./lib/etl/include/etl/circular_buffer.h ****     }
 101:./lib/etl/include/etl/circular_buffer.h **** 
 102:./lib/etl/include/etl/circular_buffer.h ****     //*************************************************************************
 103:./lib/etl/include/etl/circular_buffer.h ****     bool empty() const
 104:./lib/etl/include/etl/circular_buffer.h ****     {
 105:./lib/etl/include/etl/circular_buffer.h ****       return in == out;
 106:./lib/etl/include/etl/circular_buffer.h ****     }
 107:./lib/etl/include/etl/circular_buffer.h **** 
 108:./lib/etl/include/etl/circular_buffer.h ****     //*************************************************************************
 109:./lib/etl/include/etl/circular_buffer.h ****     bool full() const
 110:./lib/etl/include/etl/circular_buffer.h ****     {
 111:./lib/etl/include/etl/circular_buffer.h ****       size_t i = in;
 112:./lib/etl/include/etl/circular_buffer.h **** 
 113:./lib/etl/include/etl/circular_buffer.h ****       ++i;
 114:./lib/etl/include/etl/circular_buffer.h ****       if (i == buffer_size) ETL_UNLIKELY
 115:./lib/etl/include/etl/circular_buffer.h ****       {
 116:./lib/etl/include/etl/circular_buffer.h ****         i = 0U;
 117:./lib/etl/include/etl/circular_buffer.h ****       }
 118:./lib/etl/include/etl/circular_buffer.h **** 
 119:./lib/etl/include/etl/circular_buffer.h ****       return i == out;
 120:./lib/etl/include/etl/circular_buffer.h ****     }
 121:./lib/etl/include/etl/circular_buffer.h **** 
 122:./lib/etl/include/etl/circular_buffer.h ****     //*************************************************************************
 123:./lib/etl/include/etl/circular_buffer.h ****     size_type available() const
 124:./lib/etl/include/etl/circular_buffer.h ****     {
 125:./lib/etl/include/etl/circular_buffer.h ****       return max_size() - size();
 126:./lib/etl/include/etl/circular_buffer.h ****     }
 127:./lib/etl/include/etl/circular_buffer.h **** 
ARM GAS  C:\Users\Estudi\AppData\Local\Temp\ccgnIlRK.s 			page 19


 128:./lib/etl/include/etl/circular_buffer.h ****     //*************************************************************************
 129:./lib/etl/include/etl/circular_buffer.h ****     size_type max_size() const
 130:./lib/etl/include/etl/circular_buffer.h ****     {
 131:./lib/etl/include/etl/circular_buffer.h ****       return buffer_size - 1U;
 132:./lib/etl/include/etl/circular_buffer.h ****     }
 133:./lib/etl/include/etl/circular_buffer.h **** 
 134:./lib/etl/include/etl/circular_buffer.h ****     //*************************************************************************
 135:./lib/etl/include/etl/circular_buffer.h ****     size_type capacity() const
 136:./lib/etl/include/etl/circular_buffer.h ****     {
 137:./lib/etl/include/etl/circular_buffer.h ****       return buffer_size - 1U;
 138:./lib/etl/include/etl/circular_buffer.h ****     }
 139:./lib/etl/include/etl/circular_buffer.h **** 
 140:./lib/etl/include/etl/circular_buffer.h ****   protected:
 141:./lib/etl/include/etl/circular_buffer.h **** 
 142:./lib/etl/include/etl/circular_buffer.h ****     //*************************************************************************
 143:./lib/etl/include/etl/circular_buffer.h ****     circular_buffer_base(size_type buffer_size_)
 144:./lib/etl/include/etl/circular_buffer.h ****       : buffer_size(buffer_size_)
 145:./lib/etl/include/etl/circular_buffer.h ****       , in(0U)
 146:./lib/etl/include/etl/circular_buffer.h ****       , out(0U)
 147:./lib/etl/include/etl/circular_buffer.h ****     {
 148:./lib/etl/include/etl/circular_buffer.h ****     }
 149:./lib/etl/include/etl/circular_buffer.h **** 
 150:./lib/etl/include/etl/circular_buffer.h ****     //*************************************************************************
 151:./lib/etl/include/etl/circular_buffer.h ****     void increment_in()
 152:./lib/etl/include/etl/circular_buffer.h ****     {
 153:./lib/etl/include/etl/circular_buffer.h ****       ++in;
 154:./lib/etl/include/etl/circular_buffer.h ****       if (in == buffer_size) ETL_UNLIKELY
 155:./lib/etl/include/etl/circular_buffer.h ****       {
 156:./lib/etl/include/etl/circular_buffer.h ****         in = 0U;
 157:./lib/etl/include/etl/circular_buffer.h ****       }
 158:./lib/etl/include/etl/circular_buffer.h ****     }
 159:./lib/etl/include/etl/circular_buffer.h **** 
 160:./lib/etl/include/etl/circular_buffer.h ****     //*************************************************************************
 161:./lib/etl/include/etl/circular_buffer.h ****     void increment_out()
 162:./lib/etl/include/etl/circular_buffer.h ****     {
 163:./lib/etl/include/etl/circular_buffer.h ****       ++out;
 164:./lib/etl/include/etl/circular_buffer.h ****       if (out == buffer_size) ETL_UNLIKELY
 165:./lib/etl/include/etl/circular_buffer.h ****       {
 166:./lib/etl/include/etl/circular_buffer.h ****         out = 0U;
 167:./lib/etl/include/etl/circular_buffer.h ****       }
 168:./lib/etl/include/etl/circular_buffer.h ****     }
 169:./lib/etl/include/etl/circular_buffer.h **** 
 170:./lib/etl/include/etl/circular_buffer.h ****     size_type buffer_size;
 171:./lib/etl/include/etl/circular_buffer.h ****     size_type in;            ///< Index to the next write.
 172:./lib/etl/include/etl/circular_buffer.h ****     size_type out;           ///< Index to the next read.
 173:./lib/etl/include/etl/circular_buffer.h ****     ETL_DECLARE_DEBUG_COUNT;  ///< Internal debugging.
 174:./lib/etl/include/etl/circular_buffer.h ****   };
 175:./lib/etl/include/etl/circular_buffer.h **** 
 176:./lib/etl/include/etl/circular_buffer.h ****   //***************************************************************************
 177:./lib/etl/include/etl/circular_buffer.h ****   ///
 178:./lib/etl/include/etl/circular_buffer.h ****   //***************************************************************************
 179:./lib/etl/include/etl/circular_buffer.h ****   template <typename T>
 180:./lib/etl/include/etl/circular_buffer.h ****   class icircular_buffer : public circular_buffer_base
 181:./lib/etl/include/etl/circular_buffer.h ****   {
 182:./lib/etl/include/etl/circular_buffer.h ****   public:
 183:./lib/etl/include/etl/circular_buffer.h **** 
 184:./lib/etl/include/etl/circular_buffer.h ****     typedef T           value_type;
ARM GAS  C:\Users\Estudi\AppData\Local\Temp\ccgnIlRK.s 			page 20


 185:./lib/etl/include/etl/circular_buffer.h ****     typedef T&          reference;
 186:./lib/etl/include/etl/circular_buffer.h ****     typedef const T&    const_reference;
 187:./lib/etl/include/etl/circular_buffer.h **** #if ETL_USING_CPP11
 188:./lib/etl/include/etl/circular_buffer.h ****     typedef T&&         rvalue_reference;
 189:./lib/etl/include/etl/circular_buffer.h **** #endif
 190:./lib/etl/include/etl/circular_buffer.h ****     typedef T*          pointer;
 191:./lib/etl/include/etl/circular_buffer.h ****     typedef const T*    const_pointer;
 192:./lib/etl/include/etl/circular_buffer.h **** 
 193:./lib/etl/include/etl/circular_buffer.h ****     typedef typename etl::iterator_traits<pointer>::difference_type difference_type;
 194:./lib/etl/include/etl/circular_buffer.h **** 
 195:./lib/etl/include/etl/circular_buffer.h ****     //*************************************************************************
 196:./lib/etl/include/etl/circular_buffer.h ****     /// Iterator iterating through the circular buffer.
 197:./lib/etl/include/etl/circular_buffer.h ****     //*************************************************************************
 198:./lib/etl/include/etl/circular_buffer.h ****     class iterator : public etl::iterator<ETL_OR_STD::random_access_iterator_tag, T>
 199:./lib/etl/include/etl/circular_buffer.h ****     {
 200:./lib/etl/include/etl/circular_buffer.h ****     public:
 201:./lib/etl/include/etl/circular_buffer.h **** 
 202:./lib/etl/include/etl/circular_buffer.h ****       friend class icircular_buffer;
 203:./lib/etl/include/etl/circular_buffer.h **** 
 204:./lib/etl/include/etl/circular_buffer.h ****       //*************************************************************************
 205:./lib/etl/include/etl/circular_buffer.h ****       /// Constructor
 206:./lib/etl/include/etl/circular_buffer.h ****       //*************************************************************************
 207:./lib/etl/include/etl/circular_buffer.h ****       iterator()
 208:./lib/etl/include/etl/circular_buffer.h ****         : picb(ETL_NULLPTR)
 209:./lib/etl/include/etl/circular_buffer.h ****         , current(0U)
 210:./lib/etl/include/etl/circular_buffer.h ****       {
 211:./lib/etl/include/etl/circular_buffer.h ****       }
 212:./lib/etl/include/etl/circular_buffer.h **** 
 213:./lib/etl/include/etl/circular_buffer.h ****       //*************************************************************************
 214:./lib/etl/include/etl/circular_buffer.h ****       /// Copy Constructor
 215:./lib/etl/include/etl/circular_buffer.h ****       //*************************************************************************
 216:./lib/etl/include/etl/circular_buffer.h ****       iterator(const iterator& other)
 217:./lib/etl/include/etl/circular_buffer.h ****         : picb(other.picb)
 218:./lib/etl/include/etl/circular_buffer.h ****         , current(other.current)
 219:./lib/etl/include/etl/circular_buffer.h ****       {
 220:./lib/etl/include/etl/circular_buffer.h ****       }
 221:./lib/etl/include/etl/circular_buffer.h **** 
 222:./lib/etl/include/etl/circular_buffer.h ****       //*************************************************************************
 223:./lib/etl/include/etl/circular_buffer.h ****       /// Assignment operator.
 224:./lib/etl/include/etl/circular_buffer.h ****       //*************************************************************************
 225:./lib/etl/include/etl/circular_buffer.h ****       iterator& operator =(const iterator& other)
 226:./lib/etl/include/etl/circular_buffer.h ****       {
 227:./lib/etl/include/etl/circular_buffer.h ****         picb    = other.picb;
 228:./lib/etl/include/etl/circular_buffer.h ****         current = other.current;
 229:./lib/etl/include/etl/circular_buffer.h **** 
 230:./lib/etl/include/etl/circular_buffer.h ****         return *this;
 231:./lib/etl/include/etl/circular_buffer.h ****       }
 232:./lib/etl/include/etl/circular_buffer.h **** 
 233:./lib/etl/include/etl/circular_buffer.h ****       //*************************************************************************
 234:./lib/etl/include/etl/circular_buffer.h ****       /// * operator
 235:./lib/etl/include/etl/circular_buffer.h ****       //*************************************************************************
 236:./lib/etl/include/etl/circular_buffer.h ****       reference operator *() const
 237:./lib/etl/include/etl/circular_buffer.h ****       {
 238:./lib/etl/include/etl/circular_buffer.h ****         return picb->pbuffer[current];
 239:./lib/etl/include/etl/circular_buffer.h ****       }
 240:./lib/etl/include/etl/circular_buffer.h **** 
 241:./lib/etl/include/etl/circular_buffer.h ****       //*************************************************************************
ARM GAS  C:\Users\Estudi\AppData\Local\Temp\ccgnIlRK.s 			page 21


 242:./lib/etl/include/etl/circular_buffer.h ****       /// -> operator
 243:./lib/etl/include/etl/circular_buffer.h ****       //*************************************************************************
 244:./lib/etl/include/etl/circular_buffer.h ****       pointer operator ->() const
 245:./lib/etl/include/etl/circular_buffer.h ****       {
 246:./lib/etl/include/etl/circular_buffer.h ****         return &picb->pbuffer[current];
 247:./lib/etl/include/etl/circular_buffer.h ****       }
 248:./lib/etl/include/etl/circular_buffer.h **** 
 249:./lib/etl/include/etl/circular_buffer.h ****       //*************************************************************************
 250:./lib/etl/include/etl/circular_buffer.h ****       /// Pre-increment.
 251:./lib/etl/include/etl/circular_buffer.h ****       //*************************************************************************
 252:./lib/etl/include/etl/circular_buffer.h ****       iterator& operator ++()
 253:./lib/etl/include/etl/circular_buffer.h ****       {
 254:./lib/etl/include/etl/circular_buffer.h ****         ++current;
 255:./lib/etl/include/etl/circular_buffer.h **** 
 256:./lib/etl/include/etl/circular_buffer.h ****         // Did we reach the end of the buffer?
 257:./lib/etl/include/etl/circular_buffer.h ****         if (current == picb->buffer_size)
 258:./lib/etl/include/etl/circular_buffer.h ****         {
 259:./lib/etl/include/etl/circular_buffer.h ****           current = 0U;
 260:./lib/etl/include/etl/circular_buffer.h ****         }
 261:./lib/etl/include/etl/circular_buffer.h **** 
 262:./lib/etl/include/etl/circular_buffer.h ****         return (*this);
 263:./lib/etl/include/etl/circular_buffer.h ****       }
 264:./lib/etl/include/etl/circular_buffer.h **** 
 265:./lib/etl/include/etl/circular_buffer.h ****       //*************************************************************************
 266:./lib/etl/include/etl/circular_buffer.h ****       /// Post increment.
 267:./lib/etl/include/etl/circular_buffer.h ****       //*************************************************************************
 268:./lib/etl/include/etl/circular_buffer.h ****       iterator operator ++(int)
 269:./lib/etl/include/etl/circular_buffer.h ****       {
 270:./lib/etl/include/etl/circular_buffer.h ****         iterator original(*this);
 271:./lib/etl/include/etl/circular_buffer.h **** 
 272:./lib/etl/include/etl/circular_buffer.h ****         ++(*this);
 273:./lib/etl/include/etl/circular_buffer.h **** 
 274:./lib/etl/include/etl/circular_buffer.h ****         return (original);
 275:./lib/etl/include/etl/circular_buffer.h ****       }
 276:./lib/etl/include/etl/circular_buffer.h **** 
 277:./lib/etl/include/etl/circular_buffer.h ****       //*************************************************************************
 278:./lib/etl/include/etl/circular_buffer.h ****       /// Pre-decrement.
 279:./lib/etl/include/etl/circular_buffer.h ****       //*************************************************************************
 280:./lib/etl/include/etl/circular_buffer.h ****       iterator& operator --()
 281:./lib/etl/include/etl/circular_buffer.h ****       {
 282:./lib/etl/include/etl/circular_buffer.h ****         // Are we at the end of the buffer?
 283:./lib/etl/include/etl/circular_buffer.h ****         if (current == 0U)
 284:./lib/etl/include/etl/circular_buffer.h ****         {
 285:./lib/etl/include/etl/circular_buffer.h ****           current = picb->buffer_size - 1;
 286:./lib/etl/include/etl/circular_buffer.h ****         }
 287:./lib/etl/include/etl/circular_buffer.h ****         else
 288:./lib/etl/include/etl/circular_buffer.h ****         {
 289:./lib/etl/include/etl/circular_buffer.h ****           --current;
 290:./lib/etl/include/etl/circular_buffer.h ****         }
 291:./lib/etl/include/etl/circular_buffer.h **** 
 292:./lib/etl/include/etl/circular_buffer.h ****         return (*this);
 293:./lib/etl/include/etl/circular_buffer.h ****       }
 294:./lib/etl/include/etl/circular_buffer.h **** 
 295:./lib/etl/include/etl/circular_buffer.h ****       //*************************************************************************
 296:./lib/etl/include/etl/circular_buffer.h ****       /// Post increment.
 297:./lib/etl/include/etl/circular_buffer.h ****       //*************************************************************************
 298:./lib/etl/include/etl/circular_buffer.h ****       iterator operator --(int)
ARM GAS  C:\Users\Estudi\AppData\Local\Temp\ccgnIlRK.s 			page 22


 299:./lib/etl/include/etl/circular_buffer.h ****       {
 300:./lib/etl/include/etl/circular_buffer.h ****         iterator original(*this);
 301:./lib/etl/include/etl/circular_buffer.h **** 
 302:./lib/etl/include/etl/circular_buffer.h ****         --(*this);
 303:./lib/etl/include/etl/circular_buffer.h **** 
 304:./lib/etl/include/etl/circular_buffer.h ****         return (original);
 305:./lib/etl/include/etl/circular_buffer.h ****       }
 306:./lib/etl/include/etl/circular_buffer.h **** 
 307:./lib/etl/include/etl/circular_buffer.h ****       //*************************************************************************
 308:./lib/etl/include/etl/circular_buffer.h ****       /// Add offset.
 309:./lib/etl/include/etl/circular_buffer.h ****       //*************************************************************************
 310:./lib/etl/include/etl/circular_buffer.h ****       iterator& operator +=(int n)
 311:./lib/etl/include/etl/circular_buffer.h ****       {
 312:./lib/etl/include/etl/circular_buffer.h ****         current += size_type(picb->buffer_size + n);
 313:./lib/etl/include/etl/circular_buffer.h ****         current %= picb->buffer_size;
 314:./lib/etl/include/etl/circular_buffer.h **** 
 315:./lib/etl/include/etl/circular_buffer.h ****         return (*this);
 316:./lib/etl/include/etl/circular_buffer.h ****       }
 317:./lib/etl/include/etl/circular_buffer.h **** 
 318:./lib/etl/include/etl/circular_buffer.h ****       //*************************************************************************
 319:./lib/etl/include/etl/circular_buffer.h ****       /// Subtract offset.
 320:./lib/etl/include/etl/circular_buffer.h ****       //*************************************************************************
 321:./lib/etl/include/etl/circular_buffer.h ****       iterator& operator -=(int n)
 322:./lib/etl/include/etl/circular_buffer.h ****       {
 323:./lib/etl/include/etl/circular_buffer.h ****         return (this->operator+=(-n));
 324:./lib/etl/include/etl/circular_buffer.h ****       }
 325:./lib/etl/include/etl/circular_buffer.h **** 
 326:./lib/etl/include/etl/circular_buffer.h ****       //*************************************************************************
 327:./lib/etl/include/etl/circular_buffer.h ****       /// Add offset.
 328:./lib/etl/include/etl/circular_buffer.h ****       //*************************************************************************
 329:./lib/etl/include/etl/circular_buffer.h ****       friend iterator operator +(const iterator& lhs, int n)
 330:./lib/etl/include/etl/circular_buffer.h ****       {
 331:./lib/etl/include/etl/circular_buffer.h ****         iterator temp = lhs;
 332:./lib/etl/include/etl/circular_buffer.h **** 
 333:./lib/etl/include/etl/circular_buffer.h ****         temp += n;
 334:./lib/etl/include/etl/circular_buffer.h **** 
 335:./lib/etl/include/etl/circular_buffer.h ****         return temp;
 336:./lib/etl/include/etl/circular_buffer.h ****       }
 337:./lib/etl/include/etl/circular_buffer.h **** 
 338:./lib/etl/include/etl/circular_buffer.h ****       //*************************************************************************
 339:./lib/etl/include/etl/circular_buffer.h ****       /// Subtract offset.
 340:./lib/etl/include/etl/circular_buffer.h ****       //*************************************************************************
 341:./lib/etl/include/etl/circular_buffer.h ****       friend iterator operator -(const iterator& lhs, int n)
 342:./lib/etl/include/etl/circular_buffer.h ****       {
 343:./lib/etl/include/etl/circular_buffer.h ****         iterator temp = lhs;
 344:./lib/etl/include/etl/circular_buffer.h **** 
 345:./lib/etl/include/etl/circular_buffer.h ****         temp -= n;
 346:./lib/etl/include/etl/circular_buffer.h **** 
 347:./lib/etl/include/etl/circular_buffer.h ****         return temp;
 348:./lib/etl/include/etl/circular_buffer.h ****       }
 349:./lib/etl/include/etl/circular_buffer.h **** 
 350:./lib/etl/include/etl/circular_buffer.h ****       //*************************************************************************
 351:./lib/etl/include/etl/circular_buffer.h ****       /// Equality operator
 352:./lib/etl/include/etl/circular_buffer.h ****       //*************************************************************************
 353:./lib/etl/include/etl/circular_buffer.h ****       friend bool operator == (const iterator& lhs, const iterator& rhs)
 354:./lib/etl/include/etl/circular_buffer.h ****       {
 355:./lib/etl/include/etl/circular_buffer.h ****         return (lhs.current == rhs.current);
ARM GAS  C:\Users\Estudi\AppData\Local\Temp\ccgnIlRK.s 			page 23


 356:./lib/etl/include/etl/circular_buffer.h ****       }
 357:./lib/etl/include/etl/circular_buffer.h **** 
 358:./lib/etl/include/etl/circular_buffer.h ****       //*************************************************************************
 359:./lib/etl/include/etl/circular_buffer.h ****       /// Inequality operator
 360:./lib/etl/include/etl/circular_buffer.h ****       //*************************************************************************
 361:./lib/etl/include/etl/circular_buffer.h ****       friend bool operator != (const iterator& lhs, const iterator& rhs)
 362:./lib/etl/include/etl/circular_buffer.h ****       {
 363:./lib/etl/include/etl/circular_buffer.h ****         return !(lhs == rhs);
 364:./lib/etl/include/etl/circular_buffer.h ****       }
 365:./lib/etl/include/etl/circular_buffer.h **** 
 366:./lib/etl/include/etl/circular_buffer.h ****       //***************************************************
 367:./lib/etl/include/etl/circular_buffer.h ****       friend bool operator < (const iterator& lhs, const iterator& rhs)
 368:./lib/etl/include/etl/circular_buffer.h ****       {
 369:./lib/etl/include/etl/circular_buffer.h ****         const difference_type lhs_index = lhs.get_index();
 370:./lib/etl/include/etl/circular_buffer.h ****         const difference_type rhs_index = rhs.get_index();
 371:./lib/etl/include/etl/circular_buffer.h ****         const difference_type reference_index = lhs.container().begin().get_index();
 372:./lib/etl/include/etl/circular_buffer.h ****         const size_t buffer_size = lhs.container().max_size() + 1UL;
 373:./lib/etl/include/etl/circular_buffer.h **** 
 374:./lib/etl/include/etl/circular_buffer.h ****         const difference_type lhs_distance = (lhs_index < reference_index) ? buffer_size + lhs_inde
 375:./lib/etl/include/etl/circular_buffer.h ****         const difference_type rhs_distance = (rhs_index < reference_index) ? buffer_size + rhs_inde
 376:./lib/etl/include/etl/circular_buffer.h **** 
 377:./lib/etl/include/etl/circular_buffer.h ****         return lhs_distance < rhs_distance;
 378:./lib/etl/include/etl/circular_buffer.h ****       }
 379:./lib/etl/include/etl/circular_buffer.h **** 
 380:./lib/etl/include/etl/circular_buffer.h ****       //***************************************************
 381:./lib/etl/include/etl/circular_buffer.h ****       friend bool operator <= (const iterator& lhs, const iterator& rhs)
 382:./lib/etl/include/etl/circular_buffer.h ****       {
 383:./lib/etl/include/etl/circular_buffer.h ****         return !(lhs > rhs);
 384:./lib/etl/include/etl/circular_buffer.h ****       }
 385:./lib/etl/include/etl/circular_buffer.h **** 
 386:./lib/etl/include/etl/circular_buffer.h ****       //***************************************************
 387:./lib/etl/include/etl/circular_buffer.h ****       friend bool operator > (const iterator& lhs, const iterator& rhs)
 388:./lib/etl/include/etl/circular_buffer.h ****       {
 389:./lib/etl/include/etl/circular_buffer.h ****         return (rhs < lhs);
 390:./lib/etl/include/etl/circular_buffer.h ****       }
 391:./lib/etl/include/etl/circular_buffer.h **** 
 392:./lib/etl/include/etl/circular_buffer.h ****       //***************************************************
 393:./lib/etl/include/etl/circular_buffer.h ****       friend bool operator >= (const iterator& lhs, const iterator& rhs)
 394:./lib/etl/include/etl/circular_buffer.h ****       {
 395:./lib/etl/include/etl/circular_buffer.h ****         return !(lhs < rhs);
 396:./lib/etl/include/etl/circular_buffer.h ****       }
 397:./lib/etl/include/etl/circular_buffer.h **** 
 398:./lib/etl/include/etl/circular_buffer.h ****       //***************************************************
 399:./lib/etl/include/etl/circular_buffer.h ****       difference_type get_index() const
 400:./lib/etl/include/etl/circular_buffer.h ****       {
 401:./lib/etl/include/etl/circular_buffer.h ****         return current;
 402:./lib/etl/include/etl/circular_buffer.h ****       }
 403:./lib/etl/include/etl/circular_buffer.h **** 
 404:./lib/etl/include/etl/circular_buffer.h ****       //***************************************************
 405:./lib/etl/include/etl/circular_buffer.h ****       const icircular_buffer& container() const
 406:./lib/etl/include/etl/circular_buffer.h ****       {
 407:./lib/etl/include/etl/circular_buffer.h ****         return *picb;
 408:./lib/etl/include/etl/circular_buffer.h ****       }
 409:./lib/etl/include/etl/circular_buffer.h **** 
 410:./lib/etl/include/etl/circular_buffer.h ****       //***************************************************
 411:./lib/etl/include/etl/circular_buffer.h ****       pointer get_buffer() const
 412:./lib/etl/include/etl/circular_buffer.h ****       {
ARM GAS  C:\Users\Estudi\AppData\Local\Temp\ccgnIlRK.s 			page 24


 413:./lib/etl/include/etl/circular_buffer.h ****         return pbuffer;
 414:./lib/etl/include/etl/circular_buffer.h ****       }
 415:./lib/etl/include/etl/circular_buffer.h **** 
 416:./lib/etl/include/etl/circular_buffer.h ****     protected:
 417:./lib/etl/include/etl/circular_buffer.h **** 
 418:./lib/etl/include/etl/circular_buffer.h ****       //***************************************************
 419:./lib/etl/include/etl/circular_buffer.h ****       difference_type distance(difference_type firstIndex, difference_type index) const
 420:./lib/etl/include/etl/circular_buffer.h ****       {
 421:./lib/etl/include/etl/circular_buffer.h ****         if (index < firstIndex)
 422:./lib/etl/include/etl/circular_buffer.h ****         {
 423:./lib/etl/include/etl/circular_buffer.h ****           return picb->buffer_size + current - firstIndex;
 424:./lib/etl/include/etl/circular_buffer.h ****         }
 425:./lib/etl/include/etl/circular_buffer.h ****         else
 426:./lib/etl/include/etl/circular_buffer.h ****         {
 427:./lib/etl/include/etl/circular_buffer.h ****           return index - firstIndex;
 428:./lib/etl/include/etl/circular_buffer.h ****         }
 429:./lib/etl/include/etl/circular_buffer.h ****       }
 430:./lib/etl/include/etl/circular_buffer.h **** 
 431:./lib/etl/include/etl/circular_buffer.h ****       //*************************************************************************
 432:./lib/etl/include/etl/circular_buffer.h ****       /// Protected constructor. Only icircular_buffer can create one.
 433:./lib/etl/include/etl/circular_buffer.h ****       //*************************************************************************
 434:./lib/etl/include/etl/circular_buffer.h ****       iterator(const icircular_buffer<T>* picb_, size_type current_)
 435:./lib/etl/include/etl/circular_buffer.h ****         : picb(picb_)
 436:./lib/etl/include/etl/circular_buffer.h ****         , current(current_)
 437:./lib/etl/include/etl/circular_buffer.h ****       {
 438:./lib/etl/include/etl/circular_buffer.h ****       }
 439:./lib/etl/include/etl/circular_buffer.h **** 
 440:./lib/etl/include/etl/circular_buffer.h ****     private:
 441:./lib/etl/include/etl/circular_buffer.h **** 
 442:./lib/etl/include/etl/circular_buffer.h ****       const icircular_buffer<T>* picb;
 443:./lib/etl/include/etl/circular_buffer.h ****       size_type current;
 444:./lib/etl/include/etl/circular_buffer.h ****     };
 445:./lib/etl/include/etl/circular_buffer.h **** 
 446:./lib/etl/include/etl/circular_buffer.h ****     //*************************************************************************
 447:./lib/etl/include/etl/circular_buffer.h ****     /// Iterator iterating through the circular buffer.
 448:./lib/etl/include/etl/circular_buffer.h ****     //*************************************************************************
 449:./lib/etl/include/etl/circular_buffer.h ****     class const_iterator : public etl::iterator<ETL_OR_STD::random_access_iterator_tag, const T>
 450:./lib/etl/include/etl/circular_buffer.h ****     {
 451:./lib/etl/include/etl/circular_buffer.h ****     public:
 452:./lib/etl/include/etl/circular_buffer.h **** 
 453:./lib/etl/include/etl/circular_buffer.h ****       friend class icircular_buffer;
 454:./lib/etl/include/etl/circular_buffer.h **** 
 455:./lib/etl/include/etl/circular_buffer.h ****       //*************************************************************************
 456:./lib/etl/include/etl/circular_buffer.h ****       /// Constructor
 457:./lib/etl/include/etl/circular_buffer.h ****       //*************************************************************************
 458:./lib/etl/include/etl/circular_buffer.h ****       const_iterator()
 459:./lib/etl/include/etl/circular_buffer.h ****         : picb(ETL_NULLPTR)
 460:./lib/etl/include/etl/circular_buffer.h ****         , current(0U)
 461:./lib/etl/include/etl/circular_buffer.h ****       {
 462:./lib/etl/include/etl/circular_buffer.h ****       }
 463:./lib/etl/include/etl/circular_buffer.h **** 
 464:./lib/etl/include/etl/circular_buffer.h ****       //*************************************************************************
 465:./lib/etl/include/etl/circular_buffer.h ****       /// Copy Constructor from iterator
 466:./lib/etl/include/etl/circular_buffer.h ****       //*************************************************************************
 467:./lib/etl/include/etl/circular_buffer.h ****       const_iterator(const typename icircular_buffer::iterator& other)
 468:./lib/etl/include/etl/circular_buffer.h ****         : picb(other.picb)
 469:./lib/etl/include/etl/circular_buffer.h ****         , current(other.current)
ARM GAS  C:\Users\Estudi\AppData\Local\Temp\ccgnIlRK.s 			page 25


 470:./lib/etl/include/etl/circular_buffer.h ****       {
 471:./lib/etl/include/etl/circular_buffer.h ****       }
 472:./lib/etl/include/etl/circular_buffer.h **** 
 473:./lib/etl/include/etl/circular_buffer.h ****       //*************************************************************************
 474:./lib/etl/include/etl/circular_buffer.h ****       /// Copy Constructor from const iterator
 475:./lib/etl/include/etl/circular_buffer.h ****       //*************************************************************************
 476:./lib/etl/include/etl/circular_buffer.h ****       const_iterator(const const_iterator& other)
 477:./lib/etl/include/etl/circular_buffer.h ****         : picb(other.picb)
 478:./lib/etl/include/etl/circular_buffer.h ****         , current(other.current)
 479:./lib/etl/include/etl/circular_buffer.h ****       {
 480:./lib/etl/include/etl/circular_buffer.h ****       }
 481:./lib/etl/include/etl/circular_buffer.h **** 
 482:./lib/etl/include/etl/circular_buffer.h ****       //*************************************************************************
 483:./lib/etl/include/etl/circular_buffer.h ****       /// Assignment operator.
 484:./lib/etl/include/etl/circular_buffer.h ****       //*************************************************************************
 485:./lib/etl/include/etl/circular_buffer.h ****       const_iterator& operator =(const typename icircular_buffer::iterator& other)
 486:./lib/etl/include/etl/circular_buffer.h ****       {
 487:./lib/etl/include/etl/circular_buffer.h ****         picb    = other.picb;
 488:./lib/etl/include/etl/circular_buffer.h ****         current = other.current;
 489:./lib/etl/include/etl/circular_buffer.h **** 
 490:./lib/etl/include/etl/circular_buffer.h ****         return *this;
 491:./lib/etl/include/etl/circular_buffer.h ****       }
 492:./lib/etl/include/etl/circular_buffer.h **** 
 493:./lib/etl/include/etl/circular_buffer.h ****       //*************************************************************************
 494:./lib/etl/include/etl/circular_buffer.h ****       /// Assignment operator.
 495:./lib/etl/include/etl/circular_buffer.h ****       //*************************************************************************
 496:./lib/etl/include/etl/circular_buffer.h ****       const_iterator& operator =(const const_iterator& other)
 497:./lib/etl/include/etl/circular_buffer.h ****       {
 498:./lib/etl/include/etl/circular_buffer.h ****         picb    = other.picb;
 499:./lib/etl/include/etl/circular_buffer.h ****         current = other.current;
 500:./lib/etl/include/etl/circular_buffer.h **** 
 501:./lib/etl/include/etl/circular_buffer.h ****         return *this;
 502:./lib/etl/include/etl/circular_buffer.h ****       }
 503:./lib/etl/include/etl/circular_buffer.h **** 
 504:./lib/etl/include/etl/circular_buffer.h ****       //*************************************************************************
 505:./lib/etl/include/etl/circular_buffer.h ****       /// * operator
 506:./lib/etl/include/etl/circular_buffer.h ****       //*************************************************************************
 507:./lib/etl/include/etl/circular_buffer.h ****       const_reference operator *() const
 508:./lib/etl/include/etl/circular_buffer.h ****       {
 509:./lib/etl/include/etl/circular_buffer.h ****         return picb->pbuffer[current];
 510:./lib/etl/include/etl/circular_buffer.h ****       }
 511:./lib/etl/include/etl/circular_buffer.h **** 
 512:./lib/etl/include/etl/circular_buffer.h ****       //*************************************************************************
 513:./lib/etl/include/etl/circular_buffer.h ****       /// -> operator
 514:./lib/etl/include/etl/circular_buffer.h ****       //*************************************************************************
 515:./lib/etl/include/etl/circular_buffer.h ****       const_pointer operator ->() const
 516:./lib/etl/include/etl/circular_buffer.h ****       {
 517:./lib/etl/include/etl/circular_buffer.h ****         return &(picb->pbuffer[current]);
 518:./lib/etl/include/etl/circular_buffer.h ****       }
 519:./lib/etl/include/etl/circular_buffer.h **** 
 520:./lib/etl/include/etl/circular_buffer.h ****       //*************************************************************************
 521:./lib/etl/include/etl/circular_buffer.h ****       /// Pre-increment.
 522:./lib/etl/include/etl/circular_buffer.h ****       //*************************************************************************
 523:./lib/etl/include/etl/circular_buffer.h ****       const_iterator& operator ++()
 524:./lib/etl/include/etl/circular_buffer.h ****       {
 525:./lib/etl/include/etl/circular_buffer.h ****         ++current;
 526:./lib/etl/include/etl/circular_buffer.h **** 
ARM GAS  C:\Users\Estudi\AppData\Local\Temp\ccgnIlRK.s 			page 26


 527:./lib/etl/include/etl/circular_buffer.h ****         // Did we reach the end of the buffer?
 528:./lib/etl/include/etl/circular_buffer.h ****         if (current == picb->buffer_size)
 529:./lib/etl/include/etl/circular_buffer.h ****         {
 530:./lib/etl/include/etl/circular_buffer.h ****           current = 0U;
 531:./lib/etl/include/etl/circular_buffer.h ****         }
 532:./lib/etl/include/etl/circular_buffer.h **** 
 533:./lib/etl/include/etl/circular_buffer.h ****         return (*this);
 534:./lib/etl/include/etl/circular_buffer.h ****       }
 535:./lib/etl/include/etl/circular_buffer.h **** 
 536:./lib/etl/include/etl/circular_buffer.h ****       //*************************************************************************
 537:./lib/etl/include/etl/circular_buffer.h ****       /// Post increment.
 538:./lib/etl/include/etl/circular_buffer.h ****       //*************************************************************************
 539:./lib/etl/include/etl/circular_buffer.h ****       const_iterator operator ++(int)
 540:./lib/etl/include/etl/circular_buffer.h ****       {
 541:./lib/etl/include/etl/circular_buffer.h ****         const_iterator original(*this);
 542:./lib/etl/include/etl/circular_buffer.h **** 
 543:./lib/etl/include/etl/circular_buffer.h ****         ++(*this);
 544:./lib/etl/include/etl/circular_buffer.h **** 
 545:./lib/etl/include/etl/circular_buffer.h ****         return (original);
 546:./lib/etl/include/etl/circular_buffer.h ****       }
 547:./lib/etl/include/etl/circular_buffer.h **** 
 548:./lib/etl/include/etl/circular_buffer.h ****       //*************************************************************************
 549:./lib/etl/include/etl/circular_buffer.h ****       /// Pre-decrement.
 550:./lib/etl/include/etl/circular_buffer.h ****       //*************************************************************************
 551:./lib/etl/include/etl/circular_buffer.h ****       const_iterator& operator --()
 552:./lib/etl/include/etl/circular_buffer.h ****       {
 553:./lib/etl/include/etl/circular_buffer.h ****         // Are we at the end of the buffer?
 554:./lib/etl/include/etl/circular_buffer.h ****         if (current == 0U)
 555:./lib/etl/include/etl/circular_buffer.h ****         {
 556:./lib/etl/include/etl/circular_buffer.h ****           current = picb->buffer_size - 1;
 557:./lib/etl/include/etl/circular_buffer.h ****         }
 558:./lib/etl/include/etl/circular_buffer.h ****         else
 559:./lib/etl/include/etl/circular_buffer.h ****         {
 560:./lib/etl/include/etl/circular_buffer.h ****           --current;
 561:./lib/etl/include/etl/circular_buffer.h ****         }
 562:./lib/etl/include/etl/circular_buffer.h **** 
 563:./lib/etl/include/etl/circular_buffer.h ****         return (*this);
 564:./lib/etl/include/etl/circular_buffer.h ****       }
 565:./lib/etl/include/etl/circular_buffer.h **** 
 566:./lib/etl/include/etl/circular_buffer.h ****       //*************************************************************************
 567:./lib/etl/include/etl/circular_buffer.h ****       /// Post increment.
 568:./lib/etl/include/etl/circular_buffer.h ****       //*************************************************************************
 569:./lib/etl/include/etl/circular_buffer.h ****       const_iterator operator --(int)
 570:./lib/etl/include/etl/circular_buffer.h ****       {
 571:./lib/etl/include/etl/circular_buffer.h ****         const_iterator original(*this);
 572:./lib/etl/include/etl/circular_buffer.h **** 
 573:./lib/etl/include/etl/circular_buffer.h ****         --(*this);
 574:./lib/etl/include/etl/circular_buffer.h **** 
 575:./lib/etl/include/etl/circular_buffer.h ****         return (original);
 576:./lib/etl/include/etl/circular_buffer.h ****       }
 577:./lib/etl/include/etl/circular_buffer.h **** 
 578:./lib/etl/include/etl/circular_buffer.h ****       //*************************************************************************
 579:./lib/etl/include/etl/circular_buffer.h ****       /// Add offset.
 580:./lib/etl/include/etl/circular_buffer.h ****       //*************************************************************************
 581:./lib/etl/include/etl/circular_buffer.h ****       const_iterator& operator +=(int n)
 582:./lib/etl/include/etl/circular_buffer.h ****       {
 583:./lib/etl/include/etl/circular_buffer.h ****         current += size_type(picb->buffer_size + n);
ARM GAS  C:\Users\Estudi\AppData\Local\Temp\ccgnIlRK.s 			page 27


 584:./lib/etl/include/etl/circular_buffer.h ****         current %= picb->buffer_size;
 585:./lib/etl/include/etl/circular_buffer.h **** 
 586:./lib/etl/include/etl/circular_buffer.h ****         return (*this);
 587:./lib/etl/include/etl/circular_buffer.h ****       }
 588:./lib/etl/include/etl/circular_buffer.h **** 
 589:./lib/etl/include/etl/circular_buffer.h ****       //*************************************************************************
 590:./lib/etl/include/etl/circular_buffer.h ****       /// Subtract offset.
 591:./lib/etl/include/etl/circular_buffer.h ****       //*************************************************************************
 592:./lib/etl/include/etl/circular_buffer.h ****       const_iterator& operator -=(int n)
 593:./lib/etl/include/etl/circular_buffer.h ****       {
 594:./lib/etl/include/etl/circular_buffer.h ****         return (this->operator+=(-n));
 595:./lib/etl/include/etl/circular_buffer.h ****       }
 596:./lib/etl/include/etl/circular_buffer.h **** 
 597:./lib/etl/include/etl/circular_buffer.h ****       //*************************************************************************
 598:./lib/etl/include/etl/circular_buffer.h ****       /// Add offset.
 599:./lib/etl/include/etl/circular_buffer.h ****       //*************************************************************************
 600:./lib/etl/include/etl/circular_buffer.h ****       friend const_iterator operator +(const const_iterator& lhs, int n)
 601:./lib/etl/include/etl/circular_buffer.h ****       {
 602:./lib/etl/include/etl/circular_buffer.h ****         const_iterator temp = lhs;
 603:./lib/etl/include/etl/circular_buffer.h **** 
 604:./lib/etl/include/etl/circular_buffer.h ****         temp += n;
 605:./lib/etl/include/etl/circular_buffer.h **** 
 606:./lib/etl/include/etl/circular_buffer.h ****         return temp;
 607:./lib/etl/include/etl/circular_buffer.h ****       }
 608:./lib/etl/include/etl/circular_buffer.h **** 
 609:./lib/etl/include/etl/circular_buffer.h ****       //*************************************************************************
 610:./lib/etl/include/etl/circular_buffer.h ****       /// Subtract offset.
 611:./lib/etl/include/etl/circular_buffer.h ****       //*************************************************************************
 612:./lib/etl/include/etl/circular_buffer.h ****       friend const_iterator operator -(const const_iterator& lhs, int n)
 613:./lib/etl/include/etl/circular_buffer.h ****       {
 614:./lib/etl/include/etl/circular_buffer.h ****         const_iterator temp = lhs;
 615:./lib/etl/include/etl/circular_buffer.h **** 
 616:./lib/etl/include/etl/circular_buffer.h ****         temp -= n;
 617:./lib/etl/include/etl/circular_buffer.h **** 
 618:./lib/etl/include/etl/circular_buffer.h ****         return temp;
 619:./lib/etl/include/etl/circular_buffer.h ****       }
 620:./lib/etl/include/etl/circular_buffer.h **** 
 621:./lib/etl/include/etl/circular_buffer.h ****       //*************************************************************************
 622:./lib/etl/include/etl/circular_buffer.h ****       /// Equality operator
 623:./lib/etl/include/etl/circular_buffer.h ****       //*************************************************************************
 624:./lib/etl/include/etl/circular_buffer.h ****       friend bool operator == (const const_iterator& lhs, const const_iterator& rhs)
 625:./lib/etl/include/etl/circular_buffer.h ****       {
 626:./lib/etl/include/etl/circular_buffer.h ****         return (lhs.current == rhs.current);
 627:./lib/etl/include/etl/circular_buffer.h ****       }
 628:./lib/etl/include/etl/circular_buffer.h **** 
 629:./lib/etl/include/etl/circular_buffer.h ****       //*************************************************************************
 630:./lib/etl/include/etl/circular_buffer.h ****       /// Inequality operator
 631:./lib/etl/include/etl/circular_buffer.h ****       //*************************************************************************
 632:./lib/etl/include/etl/circular_buffer.h ****       friend bool operator != (const const_iterator& lhs, const const_iterator& rhs)
 633:./lib/etl/include/etl/circular_buffer.h ****       {
 634:./lib/etl/include/etl/circular_buffer.h ****         return !(lhs == rhs);
 635:./lib/etl/include/etl/circular_buffer.h ****       }
 636:./lib/etl/include/etl/circular_buffer.h **** 
 637:./lib/etl/include/etl/circular_buffer.h ****       //***************************************************
 638:./lib/etl/include/etl/circular_buffer.h ****       friend bool operator < (const const_iterator& lhs, const const_iterator& rhs)
 639:./lib/etl/include/etl/circular_buffer.h ****       {
 640:./lib/etl/include/etl/circular_buffer.h ****         const difference_type lhs_index = lhs.get_index();
ARM GAS  C:\Users\Estudi\AppData\Local\Temp\ccgnIlRK.s 			page 28


 641:./lib/etl/include/etl/circular_buffer.h ****         const difference_type rhs_index = rhs.get_index();
 642:./lib/etl/include/etl/circular_buffer.h ****         const difference_type reference_index = lhs.container().begin().get_index();
 643:./lib/etl/include/etl/circular_buffer.h ****         const size_t buffer_size = lhs.container().max_size() + 1UL;
 644:./lib/etl/include/etl/circular_buffer.h **** 
 645:./lib/etl/include/etl/circular_buffer.h ****         const difference_type lhs_distance = (lhs_index < reference_index) ? buffer_size + lhs_inde
 646:./lib/etl/include/etl/circular_buffer.h ****         const difference_type rhs_distance = (rhs_index < reference_index) ? buffer_size + rhs_inde
 647:./lib/etl/include/etl/circular_buffer.h **** 
 648:./lib/etl/include/etl/circular_buffer.h ****         return lhs_distance < rhs_distance;
 649:./lib/etl/include/etl/circular_buffer.h ****       }
 650:./lib/etl/include/etl/circular_buffer.h **** 
 651:./lib/etl/include/etl/circular_buffer.h ****       //***************************************************
 652:./lib/etl/include/etl/circular_buffer.h ****       friend bool operator <= (const const_iterator& lhs, const const_iterator& rhs)
 653:./lib/etl/include/etl/circular_buffer.h ****       {
 654:./lib/etl/include/etl/circular_buffer.h ****         return !(lhs > rhs);
 655:./lib/etl/include/etl/circular_buffer.h ****       }
 656:./lib/etl/include/etl/circular_buffer.h **** 
 657:./lib/etl/include/etl/circular_buffer.h ****       //***************************************************
 658:./lib/etl/include/etl/circular_buffer.h ****       friend bool operator > (const const_iterator& lhs, const const_iterator& rhs)
 659:./lib/etl/include/etl/circular_buffer.h ****       {
 660:./lib/etl/include/etl/circular_buffer.h ****         return (rhs < lhs);
 661:./lib/etl/include/etl/circular_buffer.h ****       }
 662:./lib/etl/include/etl/circular_buffer.h **** 
 663:./lib/etl/include/etl/circular_buffer.h ****       //***************************************************
 664:./lib/etl/include/etl/circular_buffer.h ****       friend bool operator >= (const const_iterator& lhs, const const_iterator& rhs)
 665:./lib/etl/include/etl/circular_buffer.h ****       {
 666:./lib/etl/include/etl/circular_buffer.h ****         return !(lhs < rhs);
 667:./lib/etl/include/etl/circular_buffer.h ****       }
 668:./lib/etl/include/etl/circular_buffer.h **** 
 669:./lib/etl/include/etl/circular_buffer.h ****       //***************************************************
 670:./lib/etl/include/etl/circular_buffer.h ****       difference_type get_index() const
 671:./lib/etl/include/etl/circular_buffer.h ****       {
 672:./lib/etl/include/etl/circular_buffer.h ****         return current;
 673:./lib/etl/include/etl/circular_buffer.h ****       }
 674:./lib/etl/include/etl/circular_buffer.h **** 
 675:./lib/etl/include/etl/circular_buffer.h ****       //***************************************************
 676:./lib/etl/include/etl/circular_buffer.h ****       const icircular_buffer& container() const
 677:./lib/etl/include/etl/circular_buffer.h ****       {
 678:./lib/etl/include/etl/circular_buffer.h ****         return *picb;
 679:./lib/etl/include/etl/circular_buffer.h ****       }
 680:./lib/etl/include/etl/circular_buffer.h **** 
 681:./lib/etl/include/etl/circular_buffer.h ****       //***************************************************
 682:./lib/etl/include/etl/circular_buffer.h ****       pointer get_buffer() const
 683:./lib/etl/include/etl/circular_buffer.h ****       {
 684:./lib/etl/include/etl/circular_buffer.h ****         return pbuffer;
 685:./lib/etl/include/etl/circular_buffer.h ****       }
 686:./lib/etl/include/etl/circular_buffer.h **** 
 687:./lib/etl/include/etl/circular_buffer.h ****     protected:
 688:./lib/etl/include/etl/circular_buffer.h **** 
 689:./lib/etl/include/etl/circular_buffer.h ****       //*************************************************************************
 690:./lib/etl/include/etl/circular_buffer.h ****       /// Protected constructor. Only icircular_buffer can create one.
 691:./lib/etl/include/etl/circular_buffer.h ****       //*************************************************************************
 692:./lib/etl/include/etl/circular_buffer.h ****       const_iterator(const icircular_buffer<T>* picb_, size_type current_)
 693:./lib/etl/include/etl/circular_buffer.h ****         : picb(picb_)
 694:./lib/etl/include/etl/circular_buffer.h ****         , current(current_)
 695:./lib/etl/include/etl/circular_buffer.h ****       {
 696:./lib/etl/include/etl/circular_buffer.h ****       }
 697:./lib/etl/include/etl/circular_buffer.h **** 
ARM GAS  C:\Users\Estudi\AppData\Local\Temp\ccgnIlRK.s 			page 29


 698:./lib/etl/include/etl/circular_buffer.h ****     private:
 699:./lib/etl/include/etl/circular_buffer.h **** 
 700:./lib/etl/include/etl/circular_buffer.h ****       const icircular_buffer<T>* picb;
 701:./lib/etl/include/etl/circular_buffer.h ****       size_type current;
 702:./lib/etl/include/etl/circular_buffer.h ****     };
 703:./lib/etl/include/etl/circular_buffer.h **** 
 704:./lib/etl/include/etl/circular_buffer.h ****     friend class iterator;
 705:./lib/etl/include/etl/circular_buffer.h ****     friend class const_iterator;
 706:./lib/etl/include/etl/circular_buffer.h **** 
 707:./lib/etl/include/etl/circular_buffer.h ****     typedef etl::reverse_iterator<iterator>       reverse_iterator;
 708:./lib/etl/include/etl/circular_buffer.h ****     typedef etl::reverse_iterator<const_iterator> const_reverse_iterator;
 709:./lib/etl/include/etl/circular_buffer.h **** 
 710:./lib/etl/include/etl/circular_buffer.h ****     //*************************************************************************
 711:./lib/etl/include/etl/circular_buffer.h ****     /// Gets an iterator to the start of the buffer.
 712:./lib/etl/include/etl/circular_buffer.h ****     //*************************************************************************
 713:./lib/etl/include/etl/circular_buffer.h ****     iterator begin()
 714:./lib/etl/include/etl/circular_buffer.h ****     {
 715:./lib/etl/include/etl/circular_buffer.h ****       return iterator(this, out);
 716:./lib/etl/include/etl/circular_buffer.h ****     }
 717:./lib/etl/include/etl/circular_buffer.h **** 
 718:./lib/etl/include/etl/circular_buffer.h ****     //*************************************************************************
 719:./lib/etl/include/etl/circular_buffer.h ****     /// Gets a const iterator to the start of the buffer.
 720:./lib/etl/include/etl/circular_buffer.h ****     //*************************************************************************
 721:./lib/etl/include/etl/circular_buffer.h ****     const_iterator begin() const
 722:./lib/etl/include/etl/circular_buffer.h ****     {
 723:./lib/etl/include/etl/circular_buffer.h ****       return const_iterator(this, out);
 724:./lib/etl/include/etl/circular_buffer.h ****     }
 725:./lib/etl/include/etl/circular_buffer.h **** 
 726:./lib/etl/include/etl/circular_buffer.h ****     //*************************************************************************
 727:./lib/etl/include/etl/circular_buffer.h ****     /// Gets a const iterator to the start of the buffer.
 728:./lib/etl/include/etl/circular_buffer.h ****     //*************************************************************************
 729:./lib/etl/include/etl/circular_buffer.h ****     const_iterator cbegin() const
 730:./lib/etl/include/etl/circular_buffer.h ****     {
 731:./lib/etl/include/etl/circular_buffer.h ****       return const_iterator(this, out);
 732:./lib/etl/include/etl/circular_buffer.h ****     }
 733:./lib/etl/include/etl/circular_buffer.h **** 
 734:./lib/etl/include/etl/circular_buffer.h ****     //*************************************************************************
 735:./lib/etl/include/etl/circular_buffer.h ****     /// Gets an iterator to the end of the buffer.
 736:./lib/etl/include/etl/circular_buffer.h ****     //*************************************************************************
 737:./lib/etl/include/etl/circular_buffer.h ****     iterator end()
 738:./lib/etl/include/etl/circular_buffer.h ****     {
 739:./lib/etl/include/etl/circular_buffer.h ****       return iterator(this, in);
 740:./lib/etl/include/etl/circular_buffer.h ****     }
 741:./lib/etl/include/etl/circular_buffer.h **** 
 742:./lib/etl/include/etl/circular_buffer.h ****     //*************************************************************************
 743:./lib/etl/include/etl/circular_buffer.h ****     /// Gets a const iterator to the end of the buffer.
 744:./lib/etl/include/etl/circular_buffer.h ****     //*************************************************************************
 745:./lib/etl/include/etl/circular_buffer.h ****     const_iterator end() const
 746:./lib/etl/include/etl/circular_buffer.h ****     {
 747:./lib/etl/include/etl/circular_buffer.h ****       return const_iterator(this, in);
 748:./lib/etl/include/etl/circular_buffer.h ****     }
 749:./lib/etl/include/etl/circular_buffer.h **** 
 750:./lib/etl/include/etl/circular_buffer.h ****     //*************************************************************************
 751:./lib/etl/include/etl/circular_buffer.h ****     /// Gets a const iterator to the end of the buffer.
 752:./lib/etl/include/etl/circular_buffer.h ****     //*************************************************************************
 753:./lib/etl/include/etl/circular_buffer.h ****     const_iterator cend() const
 754:./lib/etl/include/etl/circular_buffer.h ****     {
ARM GAS  C:\Users\Estudi\AppData\Local\Temp\ccgnIlRK.s 			page 30


 755:./lib/etl/include/etl/circular_buffer.h ****       return const_iterator(this, in);
 756:./lib/etl/include/etl/circular_buffer.h ****     }
 757:./lib/etl/include/etl/circular_buffer.h **** 
 758:./lib/etl/include/etl/circular_buffer.h ****     //*************************************************************************
 759:./lib/etl/include/etl/circular_buffer.h ****     /// Gets a reverse iterator to the start of the buffer.
 760:./lib/etl/include/etl/circular_buffer.h ****     //*************************************************************************
 761:./lib/etl/include/etl/circular_buffer.h ****     reverse_iterator rbegin()
 762:./lib/etl/include/etl/circular_buffer.h ****     {
 763:./lib/etl/include/etl/circular_buffer.h ****       return reverse_iterator(end());
 764:./lib/etl/include/etl/circular_buffer.h ****     }
 765:./lib/etl/include/etl/circular_buffer.h **** 
 766:./lib/etl/include/etl/circular_buffer.h ****     //*************************************************************************
 767:./lib/etl/include/etl/circular_buffer.h ****     /// Gets a const reverse iterator to the start of the buffer.
 768:./lib/etl/include/etl/circular_buffer.h ****     //*************************************************************************
 769:./lib/etl/include/etl/circular_buffer.h ****     const_reverse_iterator rbegin() const
 770:./lib/etl/include/etl/circular_buffer.h ****     {
 771:./lib/etl/include/etl/circular_buffer.h ****       return const_reverse_iterator(end());
 772:./lib/etl/include/etl/circular_buffer.h ****     }
 773:./lib/etl/include/etl/circular_buffer.h **** 
 774:./lib/etl/include/etl/circular_buffer.h ****     //*************************************************************************
 775:./lib/etl/include/etl/circular_buffer.h ****     /// Gets a const reverse iterator to the start of the buffer.
 776:./lib/etl/include/etl/circular_buffer.h ****     //*************************************************************************
 777:./lib/etl/include/etl/circular_buffer.h ****     const_reverse_iterator crbegin() const
 778:./lib/etl/include/etl/circular_buffer.h ****     {
 779:./lib/etl/include/etl/circular_buffer.h ****       return const_reverse_iterator(end());
 780:./lib/etl/include/etl/circular_buffer.h ****     }
 781:./lib/etl/include/etl/circular_buffer.h **** 
 782:./lib/etl/include/etl/circular_buffer.h ****     //*************************************************************************
 783:./lib/etl/include/etl/circular_buffer.h ****     /// Gets a reverse iterator to the end of the buffer.
 784:./lib/etl/include/etl/circular_buffer.h ****     //*************************************************************************
 785:./lib/etl/include/etl/circular_buffer.h ****     reverse_iterator rend()
 786:./lib/etl/include/etl/circular_buffer.h ****     {
 787:./lib/etl/include/etl/circular_buffer.h ****       return reverse_iterator(begin());
 788:./lib/etl/include/etl/circular_buffer.h ****     }
 789:./lib/etl/include/etl/circular_buffer.h **** 
 790:./lib/etl/include/etl/circular_buffer.h ****     //*************************************************************************
 791:./lib/etl/include/etl/circular_buffer.h ****     /// Gets a const reverse iterator to the end of the buffer.
 792:./lib/etl/include/etl/circular_buffer.h ****     //*************************************************************************
 793:./lib/etl/include/etl/circular_buffer.h ****     const_reverse_iterator rend() const
 794:./lib/etl/include/etl/circular_buffer.h ****     {
 795:./lib/etl/include/etl/circular_buffer.h ****       return const_reverse_iterator(begin());
 796:./lib/etl/include/etl/circular_buffer.h ****     }
 797:./lib/etl/include/etl/circular_buffer.h **** 
 798:./lib/etl/include/etl/circular_buffer.h ****     //*************************************************************************
 799:./lib/etl/include/etl/circular_buffer.h ****     /// Gets a const reverse iterator to the end of the buffer.
 800:./lib/etl/include/etl/circular_buffer.h ****     //*************************************************************************
 801:./lib/etl/include/etl/circular_buffer.h ****     const_reverse_iterator crend() const
 802:./lib/etl/include/etl/circular_buffer.h ****     {
 803:./lib/etl/include/etl/circular_buffer.h ****       return const_reverse_iterator(begin());
 804:./lib/etl/include/etl/circular_buffer.h ****     }
 805:./lib/etl/include/etl/circular_buffer.h **** 
 806:./lib/etl/include/etl/circular_buffer.h ****     //*************************************************************************
 807:./lib/etl/include/etl/circular_buffer.h ****     /// Get a const reference to the item at the front of the buffer.
 808:./lib/etl/include/etl/circular_buffer.h ****     /// Asserts an error if the buffer is empty.
 809:./lib/etl/include/etl/circular_buffer.h ****     //*************************************************************************
 810:./lib/etl/include/etl/circular_buffer.h ****     reference front()
 811:./lib/etl/include/etl/circular_buffer.h ****     {
ARM GAS  C:\Users\Estudi\AppData\Local\Temp\ccgnIlRK.s 			page 31


 812:./lib/etl/include/etl/circular_buffer.h ****       ETL_ASSERT(!empty(), ETL_ERROR(circular_buffer_empty));
 813:./lib/etl/include/etl/circular_buffer.h **** 
 814:./lib/etl/include/etl/circular_buffer.h ****       return pbuffer[out];
 815:./lib/etl/include/etl/circular_buffer.h ****     }
 816:./lib/etl/include/etl/circular_buffer.h **** 
 817:./lib/etl/include/etl/circular_buffer.h ****     //*************************************************************************
 818:./lib/etl/include/etl/circular_buffer.h ****     /// Get a const reference to the item at the front of the buffer.
 819:./lib/etl/include/etl/circular_buffer.h ****     /// Asserts an error if the buffer is empty.
 820:./lib/etl/include/etl/circular_buffer.h ****     //*************************************************************************
 821:./lib/etl/include/etl/circular_buffer.h ****     const_reference front() const
 822:./lib/etl/include/etl/circular_buffer.h ****     {
 823:./lib/etl/include/etl/circular_buffer.h ****       ETL_ASSERT(!empty(), ETL_ERROR(circular_buffer_empty));
 824:./lib/etl/include/etl/circular_buffer.h **** 
 825:./lib/etl/include/etl/circular_buffer.h ****       return pbuffer[out];
 826:./lib/etl/include/etl/circular_buffer.h ****     }
 827:./lib/etl/include/etl/circular_buffer.h **** 
 828:./lib/etl/include/etl/circular_buffer.h ****     //*************************************************************************
 829:./lib/etl/include/etl/circular_buffer.h ****     /// Get a reference to the item at the back of the buffer.
 830:./lib/etl/include/etl/circular_buffer.h ****     /// Asserts an error if the buffer is empty.
 831:./lib/etl/include/etl/circular_buffer.h ****     //*************************************************************************
 832:./lib/etl/include/etl/circular_buffer.h ****     reference back()
 833:./lib/etl/include/etl/circular_buffer.h ****     {
 834:./lib/etl/include/etl/circular_buffer.h ****       ETL_ASSERT(!empty(), ETL_ERROR(circular_buffer_empty));
 835:./lib/etl/include/etl/circular_buffer.h **** 
 836:./lib/etl/include/etl/circular_buffer.h ****       return pbuffer[in == 0U ? buffer_size - 1 : in - 1U];
 837:./lib/etl/include/etl/circular_buffer.h ****     }
 838:./lib/etl/include/etl/circular_buffer.h **** 
 839:./lib/etl/include/etl/circular_buffer.h ****     //*************************************************************************
 840:./lib/etl/include/etl/circular_buffer.h ****     /// Get a const reference to the item at the back of the buffer.
 841:./lib/etl/include/etl/circular_buffer.h ****     /// Asserts an error if the buffer is empty.
 842:./lib/etl/include/etl/circular_buffer.h ****     //*************************************************************************
 843:./lib/etl/include/etl/circular_buffer.h ****     const_reference back() const
 844:./lib/etl/include/etl/circular_buffer.h ****     {
 845:./lib/etl/include/etl/circular_buffer.h ****       ETL_ASSERT(!empty(), ETL_ERROR(circular_buffer_empty));
 846:./lib/etl/include/etl/circular_buffer.h **** 
 847:./lib/etl/include/etl/circular_buffer.h ****       return pbuffer[in == 0U ? buffer_size - 1 : in - 1U];
 848:./lib/etl/include/etl/circular_buffer.h ****     }
 849:./lib/etl/include/etl/circular_buffer.h **** 
 850:./lib/etl/include/etl/circular_buffer.h ****     //*************************************************************************
 851:./lib/etl/include/etl/circular_buffer.h ****     /// Get a reference to the item.
 852:./lib/etl/include/etl/circular_buffer.h ****     //*************************************************************************
 853:./lib/etl/include/etl/circular_buffer.h ****     reference operator [](size_t index)
 854:./lib/etl/include/etl/circular_buffer.h ****     {
 855:./lib/etl/include/etl/circular_buffer.h ****       return pbuffer[(out + index) % buffer_size];
 856:./lib/etl/include/etl/circular_buffer.h ****     }
 857:./lib/etl/include/etl/circular_buffer.h **** 
 858:./lib/etl/include/etl/circular_buffer.h ****     //*************************************************************************
 859:./lib/etl/include/etl/circular_buffer.h ****     /// Get a const reference to the item at the back of the buffer.
 860:./lib/etl/include/etl/circular_buffer.h ****     /// Asserts an error if the buffer is empty.
 861:./lib/etl/include/etl/circular_buffer.h ****     //*************************************************************************
 862:./lib/etl/include/etl/circular_buffer.h ****     const_reference operator [](size_t index) const
 863:./lib/etl/include/etl/circular_buffer.h ****     {
 864:./lib/etl/include/etl/circular_buffer.h ****       return pbuffer[(out + index) % buffer_size];
 865:./lib/etl/include/etl/circular_buffer.h ****     }
 866:./lib/etl/include/etl/circular_buffer.h **** 
 867:./lib/etl/include/etl/circular_buffer.h ****     //*************************************************************************
 868:./lib/etl/include/etl/circular_buffer.h ****     /// push.
ARM GAS  C:\Users\Estudi\AppData\Local\Temp\ccgnIlRK.s 			page 32


 869:./lib/etl/include/etl/circular_buffer.h ****     /// Adds an item to the buffer.
 870:./lib/etl/include/etl/circular_buffer.h ****     /// If the buffer is filled then the oldest item is overwritten.
 871:./lib/etl/include/etl/circular_buffer.h ****     //*************************************************************************
 872:./lib/etl/include/etl/circular_buffer.h ****     void push(const_reference item)
 873:./lib/etl/include/etl/circular_buffer.h ****     {
 874:./lib/etl/include/etl/circular_buffer.h ****       ::new (&pbuffer[in]) T(item);
 875:./lib/etl/include/etl/circular_buffer.h ****       increment_in();
 876:./lib/etl/include/etl/circular_buffer.h **** 
 877:./lib/etl/include/etl/circular_buffer.h ****       // Did we catch up with the 'out' index?
 878:./lib/etl/include/etl/circular_buffer.h ****       if (in == out)
 879:./lib/etl/include/etl/circular_buffer.h ****       {
 880:./lib/etl/include/etl/circular_buffer.h ****         // Forget about the oldest one.
 881:./lib/etl/include/etl/circular_buffer.h ****         pbuffer[out].~T();
 882:./lib/etl/include/etl/circular_buffer.h ****         this->increment_out();
 883:./lib/etl/include/etl/circular_buffer.h ****       }
 884:./lib/etl/include/etl/circular_buffer.h ****       else
 885:./lib/etl/include/etl/circular_buffer.h ****       {
 886:./lib/etl/include/etl/circular_buffer.h ****         ETL_INCREMENT_DEBUG_COUNT;
 887:./lib/etl/include/etl/circular_buffer.h ****       }
 888:./lib/etl/include/etl/circular_buffer.h ****     }
 889:./lib/etl/include/etl/circular_buffer.h **** 
 890:./lib/etl/include/etl/circular_buffer.h **** #if ETL_USING_CPP11
 891:./lib/etl/include/etl/circular_buffer.h ****     //*************************************************************************
 892:./lib/etl/include/etl/circular_buffer.h ****     /// push.
 893:./lib/etl/include/etl/circular_buffer.h ****     /// Adds an item to the buffer.
 894:./lib/etl/include/etl/circular_buffer.h ****     /// If the buffer is filled then the oldest item is overwritten.
 895:./lib/etl/include/etl/circular_buffer.h ****     //*************************************************************************
 896:./lib/etl/include/etl/circular_buffer.h ****     void push(rvalue_reference item)
 897:./lib/etl/include/etl/circular_buffer.h ****     {
 898:./lib/etl/include/etl/circular_buffer.h ****       ::new (&pbuffer[in]) T(etl::move(item));
 899:./lib/etl/include/etl/circular_buffer.h ****       increment_in();
 900:./lib/etl/include/etl/circular_buffer.h **** 
 901:./lib/etl/include/etl/circular_buffer.h ****       // Did we catch up with the 'out' index?
 902:./lib/etl/include/etl/circular_buffer.h ****       if (in == out)
 903:./lib/etl/include/etl/circular_buffer.h ****       {
 904:./lib/etl/include/etl/circular_buffer.h ****         // Forget about the oldest item.
 905:./lib/etl/include/etl/circular_buffer.h ****         pbuffer[out].~T();
 906:./lib/etl/include/etl/circular_buffer.h ****         increment_out();
 907:./lib/etl/include/etl/circular_buffer.h ****       }
 908:./lib/etl/include/etl/circular_buffer.h ****       else
 909:./lib/etl/include/etl/circular_buffer.h ****       {
 910:./lib/etl/include/etl/circular_buffer.h ****         ETL_INCREMENT_DEBUG_COUNT;
 911:./lib/etl/include/etl/circular_buffer.h ****       }
 912:./lib/etl/include/etl/circular_buffer.h ****     }
 913:./lib/etl/include/etl/circular_buffer.h **** #endif
 914:./lib/etl/include/etl/circular_buffer.h **** 
 915:./lib/etl/include/etl/circular_buffer.h ****     //*************************************************************************
 916:./lib/etl/include/etl/circular_buffer.h ****     /// Push a buffer from an iterator range.
 917:./lib/etl/include/etl/circular_buffer.h ****     //*************************************************************************
 918:./lib/etl/include/etl/circular_buffer.h ****     template <typename TIterator>
 919:./lib/etl/include/etl/circular_buffer.h ****     void push(TIterator first, const TIterator& last)
 920:./lib/etl/include/etl/circular_buffer.h ****     {
 921:./lib/etl/include/etl/circular_buffer.h ****       while (first != last)
 922:./lib/etl/include/etl/circular_buffer.h ****       {
 923:./lib/etl/include/etl/circular_buffer.h ****         push(*first);
 924:./lib/etl/include/etl/circular_buffer.h ****         ++first;
 925:./lib/etl/include/etl/circular_buffer.h ****       }
ARM GAS  C:\Users\Estudi\AppData\Local\Temp\ccgnIlRK.s 			page 33


 926:./lib/etl/include/etl/circular_buffer.h ****     }
 927:./lib/etl/include/etl/circular_buffer.h **** 
 928:./lib/etl/include/etl/circular_buffer.h ****     //*************************************************************************
 929:./lib/etl/include/etl/circular_buffer.h ****     /// pop
 930:./lib/etl/include/etl/circular_buffer.h ****     //*************************************************************************
 931:./lib/etl/include/etl/circular_buffer.h ****     void pop()
 932:./lib/etl/include/etl/circular_buffer.h ****     {
 933:./lib/etl/include/etl/circular_buffer.h ****       ETL_ASSERT(!empty(), ETL_ERROR(circular_buffer_empty));
 934:./lib/etl/include/etl/circular_buffer.h ****       pbuffer[out].~T();
 935:./lib/etl/include/etl/circular_buffer.h ****       increment_out();
 936:./lib/etl/include/etl/circular_buffer.h ****       ETL_DECREMENT_DEBUG_COUNT;
 937:./lib/etl/include/etl/circular_buffer.h ****     }
 938:./lib/etl/include/etl/circular_buffer.h **** 
 939:./lib/etl/include/etl/circular_buffer.h ****     //*************************************************************************
 940:./lib/etl/include/etl/circular_buffer.h ****     /// pop(n)
 941:./lib/etl/include/etl/circular_buffer.h ****     //*************************************************************************
 942:./lib/etl/include/etl/circular_buffer.h ****     void pop(size_type n)
 943:./lib/etl/include/etl/circular_buffer.h ****     {
 944:./lib/etl/include/etl/circular_buffer.h ****       while (n-- != 0U)
 945:./lib/etl/include/etl/circular_buffer.h ****       {
 946:./lib/etl/include/etl/circular_buffer.h ****         pop();
 947:./lib/etl/include/etl/circular_buffer.h ****       }
 948:./lib/etl/include/etl/circular_buffer.h ****     }
 949:./lib/etl/include/etl/circular_buffer.h **** 
 950:./lib/etl/include/etl/circular_buffer.h ****     //*************************************************************************
 951:./lib/etl/include/etl/circular_buffer.h ****     /// Clears the buffer.
 952:./lib/etl/include/etl/circular_buffer.h ****     //*************************************************************************
 953:./lib/etl/include/etl/circular_buffer.h ****     void clear()
 954:./lib/etl/include/etl/circular_buffer.h ****     {
 955:./lib/etl/include/etl/circular_buffer.h ****       if ETL_IF_CONSTEXPR(etl::is_trivially_destructible<T>::value)
 956:./lib/etl/include/etl/circular_buffer.h ****       {
 957:./lib/etl/include/etl/circular_buffer.h ****         in    = 0U;
 958:./lib/etl/include/etl/circular_buffer.h ****         out   = 0U;
 959:./lib/etl/include/etl/circular_buffer.h ****         ETL_RESET_DEBUG_COUNT;
 960:./lib/etl/include/etl/circular_buffer.h ****       }
 961:./lib/etl/include/etl/circular_buffer.h ****       else
 962:./lib/etl/include/etl/circular_buffer.h ****       {
 963:./lib/etl/include/etl/circular_buffer.h ****         while (!empty())
 964:./lib/etl/include/etl/circular_buffer.h ****         {
 965:./lib/etl/include/etl/circular_buffer.h ****           pop();
 966:./lib/etl/include/etl/circular_buffer.h ****         }
 967:./lib/etl/include/etl/circular_buffer.h ****       }
 968:./lib/etl/include/etl/circular_buffer.h ****     }
 969:./lib/etl/include/etl/circular_buffer.h **** 
 970:./lib/etl/include/etl/circular_buffer.h ****     //*************************************************************************
 971:./lib/etl/include/etl/circular_buffer.h ****     /// Fills the buffer.
 972:./lib/etl/include/etl/circular_buffer.h ****     //*************************************************************************
 973:./lib/etl/include/etl/circular_buffer.h ****     void fill(const T& value)
 974:./lib/etl/include/etl/circular_buffer.h ****     {
 975:./lib/etl/include/etl/circular_buffer.h ****       etl::fill(begin(), end(), value);
 976:./lib/etl/include/etl/circular_buffer.h ****     }
 977:./lib/etl/include/etl/circular_buffer.h **** 
 978:./lib/etl/include/etl/circular_buffer.h **** #ifdef ETL_ICIRCULAR_BUFFER_REPAIR_ENABLE
 979:./lib/etl/include/etl/circular_buffer.h ****     //*************************************************************************
 980:./lib/etl/include/etl/circular_buffer.h ****     /// Fix the internal pointers after a low level memory copy.
 981:./lib/etl/include/etl/circular_buffer.h ****     //*************************************************************************
 982:./lib/etl/include/etl/circular_buffer.h ****     virtual void repair() = 0;
ARM GAS  C:\Users\Estudi\AppData\Local\Temp\ccgnIlRK.s 			page 34


 983:./lib/etl/include/etl/circular_buffer.h **** #endif
 984:./lib/etl/include/etl/circular_buffer.h **** 
 985:./lib/etl/include/etl/circular_buffer.h ****     //*************************************************************************
 986:./lib/etl/include/etl/circular_buffer.h ****     /// - operator for iterator
 987:./lib/etl/include/etl/circular_buffer.h ****     //*************************************************************************
 988:./lib/etl/include/etl/circular_buffer.h ****     friend difference_type operator -(const iterator& lhs, const iterator& rhs)
 989:./lib/etl/include/etl/circular_buffer.h ****     {
 990:./lib/etl/include/etl/circular_buffer.h ****       return distance(rhs, lhs);
 991:./lib/etl/include/etl/circular_buffer.h ****     }
 992:./lib/etl/include/etl/circular_buffer.h **** 
 993:./lib/etl/include/etl/circular_buffer.h ****     //*************************************************************************
 994:./lib/etl/include/etl/circular_buffer.h ****     /// - operator for const_iterator
 995:./lib/etl/include/etl/circular_buffer.h ****     //*************************************************************************
 996:./lib/etl/include/etl/circular_buffer.h ****     friend difference_type operator -(const const_iterator& lhs, const const_iterator& rhs)
 997:./lib/etl/include/etl/circular_buffer.h ****     {
 998:./lib/etl/include/etl/circular_buffer.h ****       return distance(rhs, lhs);
 999:./lib/etl/include/etl/circular_buffer.h ****     }
1000:./lib/etl/include/etl/circular_buffer.h **** 
1001:./lib/etl/include/etl/circular_buffer.h ****     //*************************************************************************
1002:./lib/etl/include/etl/circular_buffer.h ****     /// - operator for reverse_iterator
1003:./lib/etl/include/etl/circular_buffer.h ****     //*************************************************************************
1004:./lib/etl/include/etl/circular_buffer.h ****     friend difference_type operator -(const reverse_iterator& lhs, const reverse_iterator& rhs)
1005:./lib/etl/include/etl/circular_buffer.h ****     {
1006:./lib/etl/include/etl/circular_buffer.h ****       return distance(lhs.base(), rhs.base());
1007:./lib/etl/include/etl/circular_buffer.h ****     }
1008:./lib/etl/include/etl/circular_buffer.h **** 
1009:./lib/etl/include/etl/circular_buffer.h ****     //*************************************************************************
1010:./lib/etl/include/etl/circular_buffer.h ****     /// - operator for const_reverse_iterator
1011:./lib/etl/include/etl/circular_buffer.h ****     //*************************************************************************
1012:./lib/etl/include/etl/circular_buffer.h ****     friend difference_type operator -(const const_reverse_iterator& lhs, const const_reverse_iterat
1013:./lib/etl/include/etl/circular_buffer.h ****     {
1014:./lib/etl/include/etl/circular_buffer.h ****       return distance(lhs.base(), rhs.base());
1015:./lib/etl/include/etl/circular_buffer.h ****     }
1016:./lib/etl/include/etl/circular_buffer.h **** 
1017:./lib/etl/include/etl/circular_buffer.h ****   protected:
1018:./lib/etl/include/etl/circular_buffer.h **** 
1019:./lib/etl/include/etl/circular_buffer.h ****     //*************************************************************************
1020:./lib/etl/include/etl/circular_buffer.h ****     /// Protected constructor.
1021:./lib/etl/include/etl/circular_buffer.h ****     //*************************************************************************
1022:./lib/etl/include/etl/circular_buffer.h ****     icircular_buffer(pointer pbuffer_, size_type max_length)
1023:./lib/etl/include/etl/circular_buffer.h ****       : circular_buffer_base(max_length + 1U)
1024:./lib/etl/include/etl/circular_buffer.h ****       , pbuffer(pbuffer_)
1025:./lib/etl/include/etl/circular_buffer.h ****     {
1026:./lib/etl/include/etl/circular_buffer.h ****     }
1027:./lib/etl/include/etl/circular_buffer.h **** 
1028:./lib/etl/include/etl/circular_buffer.h ****     //*************************************************************************
1029:./lib/etl/include/etl/circular_buffer.h ****     /// Measures the distance between two iterators.
1030:./lib/etl/include/etl/circular_buffer.h ****     //*************************************************************************
1031:./lib/etl/include/etl/circular_buffer.h ****     template <typename TIterator1, typename TIterator2>
1032:./lib/etl/include/etl/circular_buffer.h ****     static difference_type distance(const TIterator1& range_begin, const TIterator2& range_end)
1033:./lib/etl/include/etl/circular_buffer.h ****     {
1034:./lib/etl/include/etl/circular_buffer.h ****       difference_type distance1 = distance(range_begin);
1035:./lib/etl/include/etl/circular_buffer.h ****       difference_type distance2 = distance(range_end);
1036:./lib/etl/include/etl/circular_buffer.h **** 
1037:./lib/etl/include/etl/circular_buffer.h ****       return distance2 - distance1;
1038:./lib/etl/include/etl/circular_buffer.h ****     }
1039:./lib/etl/include/etl/circular_buffer.h **** 
ARM GAS  C:\Users\Estudi\AppData\Local\Temp\ccgnIlRK.s 			page 35


1040:./lib/etl/include/etl/circular_buffer.h ****     //*************************************************************************
1041:./lib/etl/include/etl/circular_buffer.h ****     /// Measures the distance from the _begin iterator to the specified iterator.
1042:./lib/etl/include/etl/circular_buffer.h ****     //*************************************************************************
1043:./lib/etl/include/etl/circular_buffer.h ****     template <typename TIterator>
1044:./lib/etl/include/etl/circular_buffer.h ****     static difference_type distance(const TIterator& other)
1045:./lib/etl/include/etl/circular_buffer.h ****     {
1046:./lib/etl/include/etl/circular_buffer.h ****       const difference_type index = other.get_index();
1047:./lib/etl/include/etl/circular_buffer.h ****       const difference_type reference_index = other.container().out;
1048:./lib/etl/include/etl/circular_buffer.h ****       const size_t buffer_size = other.container().buffer_size;
1049:./lib/etl/include/etl/circular_buffer.h **** 
1050:./lib/etl/include/etl/circular_buffer.h ****       if (index < reference_index)
1051:./lib/etl/include/etl/circular_buffer.h ****       {
1052:./lib/etl/include/etl/circular_buffer.h ****         return buffer_size + index - reference_index;
1053:./lib/etl/include/etl/circular_buffer.h ****       }
1054:./lib/etl/include/etl/circular_buffer.h ****       else
1055:./lib/etl/include/etl/circular_buffer.h ****       {
1056:./lib/etl/include/etl/circular_buffer.h ****         return index - reference_index;
1057:./lib/etl/include/etl/circular_buffer.h ****       }
1058:./lib/etl/include/etl/circular_buffer.h ****     }
1059:./lib/etl/include/etl/circular_buffer.h **** 
1060:./lib/etl/include/etl/circular_buffer.h ****     //*************************************************************************
1061:./lib/etl/include/etl/circular_buffer.h ****     /// Fix the internal pointers after a low level memory copy.
1062:./lib/etl/include/etl/circular_buffer.h ****     //*************************************************************************
1063:./lib/etl/include/etl/circular_buffer.h ****     void repair_buffer(T* pbuffer_)
1064:./lib/etl/include/etl/circular_buffer.h ****     {
1065:./lib/etl/include/etl/circular_buffer.h ****       pbuffer = pbuffer_;
1066:./lib/etl/include/etl/circular_buffer.h ****     }
1067:./lib/etl/include/etl/circular_buffer.h **** 
1068:./lib/etl/include/etl/circular_buffer.h ****     pointer pbuffer;
1069:./lib/etl/include/etl/circular_buffer.h **** 
1070:./lib/etl/include/etl/circular_buffer.h ****   private:
1071:./lib/etl/include/etl/circular_buffer.h **** 
1072:./lib/etl/include/etl/circular_buffer.h ****     //*************************************************************************
1073:./lib/etl/include/etl/circular_buffer.h ****     /// Destructor.
1074:./lib/etl/include/etl/circular_buffer.h ****     //*************************************************************************
1075:./lib/etl/include/etl/circular_buffer.h **** #if defined(ETL_POLYMORPHIC_CIRCULAR_BUFFER) || defined(ETL_POLYMORPHIC_CONTAINERS)
1076:./lib/etl/include/etl/circular_buffer.h ****   public:
1077:./lib/etl/include/etl/circular_buffer.h ****     virtual ~icircular_buffer()
1078:./lib/etl/include/etl/circular_buffer.h ****     {
1079:./lib/etl/include/etl/circular_buffer.h ****     }
1080:./lib/etl/include/etl/circular_buffer.h **** #else
1081:./lib/etl/include/etl/circular_buffer.h ****   protected:
1082:./lib/etl/include/etl/circular_buffer.h ****     ~icircular_buffer()
1083:./lib/etl/include/etl/circular_buffer.h ****     {
1084:./lib/etl/include/etl/circular_buffer.h ****     }
1085:./lib/etl/include/etl/circular_buffer.h **** #endif
1086:./lib/etl/include/etl/circular_buffer.h ****   };
1087:./lib/etl/include/etl/circular_buffer.h **** 
1088:./lib/etl/include/etl/circular_buffer.h ****   //***************************************************************************
1089:./lib/etl/include/etl/circular_buffer.h ****   /// A fixed capacity circular buffer.
1090:./lib/etl/include/etl/circular_buffer.h ****   /// Internal buffer.
1091:./lib/etl/include/etl/circular_buffer.h ****   //***************************************************************************
1092:./lib/etl/include/etl/circular_buffer.h ****   template <typename T, size_t MAX_SIZE_>
1093:./lib/etl/include/etl/circular_buffer.h ****   class circular_buffer : public icircular_buffer<T>
1094:./lib/etl/include/etl/circular_buffer.h ****   {
1095:./lib/etl/include/etl/circular_buffer.h ****   public:
1096:./lib/etl/include/etl/circular_buffer.h **** 
ARM GAS  C:\Users\Estudi\AppData\Local\Temp\ccgnIlRK.s 			page 36


1097:./lib/etl/include/etl/circular_buffer.h ****     ETL_STATIC_ASSERT((MAX_SIZE_ > 0U), "Zero capacity etl::circular_buffer is not valid");
1098:./lib/etl/include/etl/circular_buffer.h **** 
1099:./lib/etl/include/etl/circular_buffer.h ****     static ETL_CONSTANT typename icircular_buffer<T>::size_type MAX_SIZE = typename icircular_buffe
1100:./lib/etl/include/etl/circular_buffer.h **** 
1101:./lib/etl/include/etl/circular_buffer.h ****     //*************************************************************************
1102:./lib/etl/include/etl/circular_buffer.h ****     /// Constructor.
1103:./lib/etl/include/etl/circular_buffer.h ****     //*************************************************************************
1104:./lib/etl/include/etl/circular_buffer.h ****     circular_buffer()
 347              		.loc 3 1104 5 is_stmt 1 view .LVU95
 348              	.LBB233:
 349              	.LBB234:
 350              	.LBI234:
1022:./lib/etl/include/etl/circular_buffer.h ****       : circular_buffer_base(max_length + 1U)
 351              		.loc 3 1022 5 view .LVU96
 352              	.LBB235:
 353              	.LBB236:
 354              	.LBI236:
 143:./lib/etl/include/etl/circular_buffer.h ****       : buffer_size(buffer_size_)
 355              		.loc 3 143 5 view .LVU97
 356              	.LBB237:
 146:./lib/etl/include/etl/circular_buffer.h ****     {
 357              		.loc 3 146 15 is_stmt 0 view .LVU98
 358 0004 0023     		movs	r3, #0
 359              	.LBE237:
 360              	.LBE236:
 361              	.LBE235:
 362              	.LBE234:
 363              	.LBE233:
 364              	.LBE232:
 365              	.LBB252:
 366              	.LBB253:
 367              	.LBB254:
 368              	.LBB255:
 369              	.LBB256:
 370              		.file 4 "c:\\program files\\daisytoolchain\\arm-none-eabi\\include\\c++\\10.2.1\\bits\\stl_vector.
   1:c:\program files\daisytoolchain\arm-none-eabi\include\c++\10.2.1\bits\stl_vector.h **** // Vector implementation -*- C++ -*-
   2:c:\program files\daisytoolchain\arm-none-eabi\include\c++\10.2.1\bits\stl_vector.h **** 
   3:c:\program files\daisytoolchain\arm-none-eabi\include\c++\10.2.1\bits\stl_vector.h **** // Copyright (C) 2001-2020 Free Software Foundation, Inc.
   4:c:\program files\daisytoolchain\arm-none-eabi\include\c++\10.2.1\bits\stl_vector.h **** //
   5:c:\program files\daisytoolchain\arm-none-eabi\include\c++\10.2.1\bits\stl_vector.h **** // This file is part of the GNU ISO C++ Library.  This library is free
   6:c:\program files\daisytoolchain\arm-none-eabi\include\c++\10.2.1\bits\stl_vector.h **** // software; you can redistribute it and/or modify it under the
   7:c:\program files\daisytoolchain\arm-none-eabi\include\c++\10.2.1\bits\stl_vector.h **** // terms of the GNU General Public License as published by the
   8:c:\program files\daisytoolchain\arm-none-eabi\include\c++\10.2.1\bits\stl_vector.h **** // Free Software Foundation; either version 3, or (at your option)
   9:c:\program files\daisytoolchain\arm-none-eabi\include\c++\10.2.1\bits\stl_vector.h **** // any later version.
  10:c:\program files\daisytoolchain\arm-none-eabi\include\c++\10.2.1\bits\stl_vector.h **** 
  11:c:\program files\daisytoolchain\arm-none-eabi\include\c++\10.2.1\bits\stl_vector.h **** // This library is distributed in the hope that it will be useful,
  12:c:\program files\daisytoolchain\arm-none-eabi\include\c++\10.2.1\bits\stl_vector.h **** // but WITHOUT ANY WARRANTY; without even the implied warranty of
  13:c:\program files\daisytoolchain\arm-none-eabi\include\c++\10.2.1\bits\stl_vector.h **** // MERCHANTABILITY or FITNESS FOR A PARTICULAR PURPOSE.  See the
  14:c:\program files\daisytoolchain\arm-none-eabi\include\c++\10.2.1\bits\stl_vector.h **** // GNU General Public License for more details.
  15:c:\program files\daisytoolchain\arm-none-eabi\include\c++\10.2.1\bits\stl_vector.h **** 
  16:c:\program files\daisytoolchain\arm-none-eabi\include\c++\10.2.1\bits\stl_vector.h **** // Under Section 7 of GPL version 3, you are granted additional
  17:c:\program files\daisytoolchain\arm-none-eabi\include\c++\10.2.1\bits\stl_vector.h **** // permissions described in the GCC Runtime Library Exception, version
  18:c:\program files\daisytoolchain\arm-none-eabi\include\c++\10.2.1\bits\stl_vector.h **** // 3.1, as published by the Free Software Foundation.
  19:c:\program files\daisytoolchain\arm-none-eabi\include\c++\10.2.1\bits\stl_vector.h **** 
  20:c:\program files\daisytoolchain\arm-none-eabi\include\c++\10.2.1\bits\stl_vector.h **** // You should have received a copy of the GNU General Public License and
  21:c:\program files\daisytoolchain\arm-none-eabi\include\c++\10.2.1\bits\stl_vector.h **** // a copy of the GCC Runtime Library Exception along with this program;
  22:c:\program files\daisytoolchain\arm-none-eabi\include\c++\10.2.1\bits\stl_vector.h **** // see the files COPYING3 and COPYING.RUNTIME respectively.  If not, see
ARM GAS  C:\Users\Estudi\AppData\Local\Temp\ccgnIlRK.s 			page 37


  23:c:\program files\daisytoolchain\arm-none-eabi\include\c++\10.2.1\bits\stl_vector.h **** // <http://www.gnu.org/licenses/>.
  24:c:\program files\daisytoolchain\arm-none-eabi\include\c++\10.2.1\bits\stl_vector.h **** 
  25:c:\program files\daisytoolchain\arm-none-eabi\include\c++\10.2.1\bits\stl_vector.h **** /*
  26:c:\program files\daisytoolchain\arm-none-eabi\include\c++\10.2.1\bits\stl_vector.h ****  *
  27:c:\program files\daisytoolchain\arm-none-eabi\include\c++\10.2.1\bits\stl_vector.h ****  * Copyright (c) 1994
  28:c:\program files\daisytoolchain\arm-none-eabi\include\c++\10.2.1\bits\stl_vector.h ****  * Hewlett-Packard Company
  29:c:\program files\daisytoolchain\arm-none-eabi\include\c++\10.2.1\bits\stl_vector.h ****  *
  30:c:\program files\daisytoolchain\arm-none-eabi\include\c++\10.2.1\bits\stl_vector.h ****  * Permission to use, copy, modify, distribute and sell this software
  31:c:\program files\daisytoolchain\arm-none-eabi\include\c++\10.2.1\bits\stl_vector.h ****  * and its documentation for any purpose is hereby granted without fee,
  32:c:\program files\daisytoolchain\arm-none-eabi\include\c++\10.2.1\bits\stl_vector.h ****  * provided that the above copyright notice appear in all copies and
  33:c:\program files\daisytoolchain\arm-none-eabi\include\c++\10.2.1\bits\stl_vector.h ****  * that both that copyright notice and this permission notice appear
  34:c:\program files\daisytoolchain\arm-none-eabi\include\c++\10.2.1\bits\stl_vector.h ****  * in supporting documentation.  Hewlett-Packard Company makes no
  35:c:\program files\daisytoolchain\arm-none-eabi\include\c++\10.2.1\bits\stl_vector.h ****  * representations about the suitability of this software for any
  36:c:\program files\daisytoolchain\arm-none-eabi\include\c++\10.2.1\bits\stl_vector.h ****  * purpose.  It is provided "as is" without express or implied warranty.
  37:c:\program files\daisytoolchain\arm-none-eabi\include\c++\10.2.1\bits\stl_vector.h ****  *
  38:c:\program files\daisytoolchain\arm-none-eabi\include\c++\10.2.1\bits\stl_vector.h ****  *
  39:c:\program files\daisytoolchain\arm-none-eabi\include\c++\10.2.1\bits\stl_vector.h ****  * Copyright (c) 1996
  40:c:\program files\daisytoolchain\arm-none-eabi\include\c++\10.2.1\bits\stl_vector.h ****  * Silicon Graphics Computer Systems, Inc.
  41:c:\program files\daisytoolchain\arm-none-eabi\include\c++\10.2.1\bits\stl_vector.h ****  *
  42:c:\program files\daisytoolchain\arm-none-eabi\include\c++\10.2.1\bits\stl_vector.h ****  * Permission to use, copy, modify, distribute and sell this software
  43:c:\program files\daisytoolchain\arm-none-eabi\include\c++\10.2.1\bits\stl_vector.h ****  * and its documentation for any purpose is hereby granted without fee,
  44:c:\program files\daisytoolchain\arm-none-eabi\include\c++\10.2.1\bits\stl_vector.h ****  * provided that the above copyright notice appear in all copies and
  45:c:\program files\daisytoolchain\arm-none-eabi\include\c++\10.2.1\bits\stl_vector.h ****  * that both that copyright notice and this permission notice appear
  46:c:\program files\daisytoolchain\arm-none-eabi\include\c++\10.2.1\bits\stl_vector.h ****  * in supporting documentation.  Silicon Graphics makes no
  47:c:\program files\daisytoolchain\arm-none-eabi\include\c++\10.2.1\bits\stl_vector.h ****  * representations about the suitability of this  software for any
  48:c:\program files\daisytoolchain\arm-none-eabi\include\c++\10.2.1\bits\stl_vector.h ****  * purpose.  It is provided "as is" without express or implied warranty.
  49:c:\program files\daisytoolchain\arm-none-eabi\include\c++\10.2.1\bits\stl_vector.h ****  */
  50:c:\program files\daisytoolchain\arm-none-eabi\include\c++\10.2.1\bits\stl_vector.h **** 
  51:c:\program files\daisytoolchain\arm-none-eabi\include\c++\10.2.1\bits\stl_vector.h **** /** @file bits/stl_vector.h
  52:c:\program files\daisytoolchain\arm-none-eabi\include\c++\10.2.1\bits\stl_vector.h ****  *  This is an internal header file, included by other library headers.
  53:c:\program files\daisytoolchain\arm-none-eabi\include\c++\10.2.1\bits\stl_vector.h ****  *  Do not attempt to use it directly. @headername{vector}
  54:c:\program files\daisytoolchain\arm-none-eabi\include\c++\10.2.1\bits\stl_vector.h ****  */
  55:c:\program files\daisytoolchain\arm-none-eabi\include\c++\10.2.1\bits\stl_vector.h **** 
  56:c:\program files\daisytoolchain\arm-none-eabi\include\c++\10.2.1\bits\stl_vector.h **** #ifndef _STL_VECTOR_H
  57:c:\program files\daisytoolchain\arm-none-eabi\include\c++\10.2.1\bits\stl_vector.h **** #define _STL_VECTOR_H 1
  58:c:\program files\daisytoolchain\arm-none-eabi\include\c++\10.2.1\bits\stl_vector.h **** 
  59:c:\program files\daisytoolchain\arm-none-eabi\include\c++\10.2.1\bits\stl_vector.h **** #include <bits/stl_iterator_base_funcs.h>
  60:c:\program files\daisytoolchain\arm-none-eabi\include\c++\10.2.1\bits\stl_vector.h **** #include <bits/functexcept.h>
  61:c:\program files\daisytoolchain\arm-none-eabi\include\c++\10.2.1\bits\stl_vector.h **** #include <bits/concept_check.h>
  62:c:\program files\daisytoolchain\arm-none-eabi\include\c++\10.2.1\bits\stl_vector.h **** #if __cplusplus >= 201103L
  63:c:\program files\daisytoolchain\arm-none-eabi\include\c++\10.2.1\bits\stl_vector.h **** #include <initializer_list>
  64:c:\program files\daisytoolchain\arm-none-eabi\include\c++\10.2.1\bits\stl_vector.h **** #endif
  65:c:\program files\daisytoolchain\arm-none-eabi\include\c++\10.2.1\bits\stl_vector.h **** #if __cplusplus > 201703L
  66:c:\program files\daisytoolchain\arm-none-eabi\include\c++\10.2.1\bits\stl_vector.h **** # include <compare>
  67:c:\program files\daisytoolchain\arm-none-eabi\include\c++\10.2.1\bits\stl_vector.h **** #endif
  68:c:\program files\daisytoolchain\arm-none-eabi\include\c++\10.2.1\bits\stl_vector.h **** 
  69:c:\program files\daisytoolchain\arm-none-eabi\include\c++\10.2.1\bits\stl_vector.h **** #include <debug/assertions.h>
  70:c:\program files\daisytoolchain\arm-none-eabi\include\c++\10.2.1\bits\stl_vector.h **** 
  71:c:\program files\daisytoolchain\arm-none-eabi\include\c++\10.2.1\bits\stl_vector.h **** #if _GLIBCXX_SANITIZE_STD_ALLOCATOR && _GLIBCXX_SANITIZE_VECTOR
  72:c:\program files\daisytoolchain\arm-none-eabi\include\c++\10.2.1\bits\stl_vector.h **** extern "C" void
  73:c:\program files\daisytoolchain\arm-none-eabi\include\c++\10.2.1\bits\stl_vector.h **** __sanitizer_annotate_contiguous_container(const void*, const void*,
  74:c:\program files\daisytoolchain\arm-none-eabi\include\c++\10.2.1\bits\stl_vector.h **** 					  const void*, const void*);
  75:c:\program files\daisytoolchain\arm-none-eabi\include\c++\10.2.1\bits\stl_vector.h **** #endif
  76:c:\program files\daisytoolchain\arm-none-eabi\include\c++\10.2.1\bits\stl_vector.h **** 
  77:c:\program files\daisytoolchain\arm-none-eabi\include\c++\10.2.1\bits\stl_vector.h **** namespace std _GLIBCXX_VISIBILITY(default)
  78:c:\program files\daisytoolchain\arm-none-eabi\include\c++\10.2.1\bits\stl_vector.h **** {
  79:c:\program files\daisytoolchain\arm-none-eabi\include\c++\10.2.1\bits\stl_vector.h **** _GLIBCXX_BEGIN_NAMESPACE_VERSION
ARM GAS  C:\Users\Estudi\AppData\Local\Temp\ccgnIlRK.s 			page 38


  80:c:\program files\daisytoolchain\arm-none-eabi\include\c++\10.2.1\bits\stl_vector.h **** _GLIBCXX_BEGIN_NAMESPACE_CONTAINER
  81:c:\program files\daisytoolchain\arm-none-eabi\include\c++\10.2.1\bits\stl_vector.h **** 
  82:c:\program files\daisytoolchain\arm-none-eabi\include\c++\10.2.1\bits\stl_vector.h ****   /// See bits/stl_deque.h's _Deque_base for an explanation.
  83:c:\program files\daisytoolchain\arm-none-eabi\include\c++\10.2.1\bits\stl_vector.h ****   template<typename _Tp, typename _Alloc>
  84:c:\program files\daisytoolchain\arm-none-eabi\include\c++\10.2.1\bits\stl_vector.h ****     struct _Vector_base
  85:c:\program files\daisytoolchain\arm-none-eabi\include\c++\10.2.1\bits\stl_vector.h ****     {
  86:c:\program files\daisytoolchain\arm-none-eabi\include\c++\10.2.1\bits\stl_vector.h ****       typedef typename __gnu_cxx::__alloc_traits<_Alloc>::template
  87:c:\program files\daisytoolchain\arm-none-eabi\include\c++\10.2.1\bits\stl_vector.h **** 	rebind<_Tp>::other _Tp_alloc_type;
  88:c:\program files\daisytoolchain\arm-none-eabi\include\c++\10.2.1\bits\stl_vector.h ****       typedef typename __gnu_cxx::__alloc_traits<_Tp_alloc_type>::pointer
  89:c:\program files\daisytoolchain\arm-none-eabi\include\c++\10.2.1\bits\stl_vector.h ****        	pointer;
  90:c:\program files\daisytoolchain\arm-none-eabi\include\c++\10.2.1\bits\stl_vector.h **** 
  91:c:\program files\daisytoolchain\arm-none-eabi\include\c++\10.2.1\bits\stl_vector.h ****       struct _Vector_impl_data
  92:c:\program files\daisytoolchain\arm-none-eabi\include\c++\10.2.1\bits\stl_vector.h ****       {
  93:c:\program files\daisytoolchain\arm-none-eabi\include\c++\10.2.1\bits\stl_vector.h **** 	pointer _M_start;
  94:c:\program files\daisytoolchain\arm-none-eabi\include\c++\10.2.1\bits\stl_vector.h **** 	pointer _M_finish;
  95:c:\program files\daisytoolchain\arm-none-eabi\include\c++\10.2.1\bits\stl_vector.h **** 	pointer _M_end_of_storage;
  96:c:\program files\daisytoolchain\arm-none-eabi\include\c++\10.2.1\bits\stl_vector.h **** 
  97:c:\program files\daisytoolchain\arm-none-eabi\include\c++\10.2.1\bits\stl_vector.h **** 	_Vector_impl_data() _GLIBCXX_NOEXCEPT
  98:c:\program files\daisytoolchain\arm-none-eabi\include\c++\10.2.1\bits\stl_vector.h **** 	: _M_start(), _M_finish(), _M_end_of_storage()
 371              		.loc 4 98 47 view .LVU99
 372 0006 00F58050 		add	r0, r0, #4096
 373              	.LVL24:
 374              		.loc 4 98 47 view .LVU100
 375              	.LBE256:
 376              	.LBE255:
 377              	.LBE254:
 378              	.LBE253:
 379              	.LBE252:
   4:src/TTrack.cpp **** {
 380              		.loc 1 4 49 view .LVU101
 381 000a 0122     		movs	r2, #1
 382              	.LBB266:
 383              	.LBB250:
 384              	.LBB247:
 385              	.LBB244:
 386              	.LBB241:
 387              	.LBB238:
 146:./lib/etl/include/etl/circular_buffer.h ****     {
 388              		.loc 3 146 15 view .LVU102
 389 000c 40F20125 		movw	r5, #513
 390              	.LBE238:
 391              	.LBE241:
 392              	.LBE244:
 393              	.LBE247:
1105:./lib/etl/include/etl/circular_buffer.h ****       : icircular_buffer<T>(reinterpret_cast<T*>(buffer.raw), MAX_SIZE)
 394              		.loc 3 1105 57 view .LVU103
 395 0010 04F11406 		add	r6, r4, #20
 396              	.LVL25:
 397              	.LBB248:
 398              	.LBB245:
 399              	.LBB242:
 400              	.LBB239:
 146:./lib/etl/include/etl/circular_buffer.h ****     {
 401              		.loc 3 146 15 view .LVU104
 402 0014 A360     		str	r3, [r4, #8]
 403              	.LVL26:
 146:./lib/etl/include/etl/circular_buffer.h ****     {
ARM GAS  C:\Users\Estudi\AppData\Local\Temp\ccgnIlRK.s 			page 39


 404              		.loc 3 146 15 view .LVU105
 405              	.LBE239:
 406              	.LBE242:
 407              	.LBE245:
 408              	.LBE248:
 409              	.LBE250:
 410              	.LBE266:
 411              	.LBB267:
 412              	.LBI252:
  99:c:\program files\daisytoolchain\arm-none-eabi\include\c++\10.2.1\bits\stl_vector.h **** 	{ }
 100:c:\program files\daisytoolchain\arm-none-eabi\include\c++\10.2.1\bits\stl_vector.h **** 
 101:c:\program files\daisytoolchain\arm-none-eabi\include\c++\10.2.1\bits\stl_vector.h **** #if __cplusplus >= 201103L
 102:c:\program files\daisytoolchain\arm-none-eabi\include\c++\10.2.1\bits\stl_vector.h **** 	_Vector_impl_data(_Vector_impl_data&& __x) noexcept
 103:c:\program files\daisytoolchain\arm-none-eabi\include\c++\10.2.1\bits\stl_vector.h **** 	: _M_start(__x._M_start), _M_finish(__x._M_finish),
 104:c:\program files\daisytoolchain\arm-none-eabi\include\c++\10.2.1\bits\stl_vector.h **** 	  _M_end_of_storage(__x._M_end_of_storage)
 105:c:\program files\daisytoolchain\arm-none-eabi\include\c++\10.2.1\bits\stl_vector.h **** 	{ __x._M_start = __x._M_finish = __x._M_end_of_storage = pointer(); }
 106:c:\program files\daisytoolchain\arm-none-eabi\include\c++\10.2.1\bits\stl_vector.h **** #endif
 107:c:\program files\daisytoolchain\arm-none-eabi\include\c++\10.2.1\bits\stl_vector.h **** 
 108:c:\program files\daisytoolchain\arm-none-eabi\include\c++\10.2.1\bits\stl_vector.h **** 	void
 109:c:\program files\daisytoolchain\arm-none-eabi\include\c++\10.2.1\bits\stl_vector.h **** 	_M_copy_data(_Vector_impl_data const& __x) _GLIBCXX_NOEXCEPT
 110:c:\program files\daisytoolchain\arm-none-eabi\include\c++\10.2.1\bits\stl_vector.h **** 	{
 111:c:\program files\daisytoolchain\arm-none-eabi\include\c++\10.2.1\bits\stl_vector.h **** 	  _M_start = __x._M_start;
 112:c:\program files\daisytoolchain\arm-none-eabi\include\c++\10.2.1\bits\stl_vector.h **** 	  _M_finish = __x._M_finish;
 113:c:\program files\daisytoolchain\arm-none-eabi\include\c++\10.2.1\bits\stl_vector.h **** 	  _M_end_of_storage = __x._M_end_of_storage;
 114:c:\program files\daisytoolchain\arm-none-eabi\include\c++\10.2.1\bits\stl_vector.h **** 	}
 115:c:\program files\daisytoolchain\arm-none-eabi\include\c++\10.2.1\bits\stl_vector.h **** 
 116:c:\program files\daisytoolchain\arm-none-eabi\include\c++\10.2.1\bits\stl_vector.h **** 	void
 117:c:\program files\daisytoolchain\arm-none-eabi\include\c++\10.2.1\bits\stl_vector.h **** 	_M_swap_data(_Vector_impl_data& __x) _GLIBCXX_NOEXCEPT
 118:c:\program files\daisytoolchain\arm-none-eabi\include\c++\10.2.1\bits\stl_vector.h **** 	{
 119:c:\program files\daisytoolchain\arm-none-eabi\include\c++\10.2.1\bits\stl_vector.h **** 	  // Do not use std::swap(_M_start, __x._M_start), etc as it loses
 120:c:\program files\daisytoolchain\arm-none-eabi\include\c++\10.2.1\bits\stl_vector.h **** 	  // information used by TBAA.
 121:c:\program files\daisytoolchain\arm-none-eabi\include\c++\10.2.1\bits\stl_vector.h **** 	  _Vector_impl_data __tmp;
 122:c:\program files\daisytoolchain\arm-none-eabi\include\c++\10.2.1\bits\stl_vector.h **** 	  __tmp._M_copy_data(*this);
 123:c:\program files\daisytoolchain\arm-none-eabi\include\c++\10.2.1\bits\stl_vector.h **** 	  _M_copy_data(__x);
 124:c:\program files\daisytoolchain\arm-none-eabi\include\c++\10.2.1\bits\stl_vector.h **** 	  __x._M_copy_data(__tmp);
 125:c:\program files\daisytoolchain\arm-none-eabi\include\c++\10.2.1\bits\stl_vector.h **** 	}
 126:c:\program files\daisytoolchain\arm-none-eabi\include\c++\10.2.1\bits\stl_vector.h ****       };
 127:c:\program files\daisytoolchain\arm-none-eabi\include\c++\10.2.1\bits\stl_vector.h **** 
 128:c:\program files\daisytoolchain\arm-none-eabi\include\c++\10.2.1\bits\stl_vector.h ****       struct _Vector_impl
 129:c:\program files\daisytoolchain\arm-none-eabi\include\c++\10.2.1\bits\stl_vector.h **** 	: public _Tp_alloc_type, public _Vector_impl_data
 130:c:\program files\daisytoolchain\arm-none-eabi\include\c++\10.2.1\bits\stl_vector.h ****       {
 131:c:\program files\daisytoolchain\arm-none-eabi\include\c++\10.2.1\bits\stl_vector.h **** 	_Vector_impl() _GLIBCXX_NOEXCEPT_IF(
 132:c:\program files\daisytoolchain\arm-none-eabi\include\c++\10.2.1\bits\stl_vector.h **** 	    is_nothrow_default_constructible<_Tp_alloc_type>::value)
 133:c:\program files\daisytoolchain\arm-none-eabi\include\c++\10.2.1\bits\stl_vector.h **** 	: _Tp_alloc_type()
 134:c:\program files\daisytoolchain\arm-none-eabi\include\c++\10.2.1\bits\stl_vector.h **** 	{ }
 135:c:\program files\daisytoolchain\arm-none-eabi\include\c++\10.2.1\bits\stl_vector.h **** 
 136:c:\program files\daisytoolchain\arm-none-eabi\include\c++\10.2.1\bits\stl_vector.h **** 	_Vector_impl(_Tp_alloc_type const& __a) _GLIBCXX_NOEXCEPT
 137:c:\program files\daisytoolchain\arm-none-eabi\include\c++\10.2.1\bits\stl_vector.h **** 	: _Tp_alloc_type(__a)
 138:c:\program files\daisytoolchain\arm-none-eabi\include\c++\10.2.1\bits\stl_vector.h **** 	{ }
 139:c:\program files\daisytoolchain\arm-none-eabi\include\c++\10.2.1\bits\stl_vector.h **** 
 140:c:\program files\daisytoolchain\arm-none-eabi\include\c++\10.2.1\bits\stl_vector.h **** #if __cplusplus >= 201103L
 141:c:\program files\daisytoolchain\arm-none-eabi\include\c++\10.2.1\bits\stl_vector.h **** 	// Not defaulted, to enforce noexcept(true) even when
 142:c:\program files\daisytoolchain\arm-none-eabi\include\c++\10.2.1\bits\stl_vector.h **** 	// !is_nothrow_move_constructible<_Tp_alloc_type>.
 143:c:\program files\daisytoolchain\arm-none-eabi\include\c++\10.2.1\bits\stl_vector.h **** 	_Vector_impl(_Vector_impl&& __x) noexcept
 144:c:\program files\daisytoolchain\arm-none-eabi\include\c++\10.2.1\bits\stl_vector.h **** 	: _Tp_alloc_type(std::move(__x)), _Vector_impl_data(std::move(__x))
 145:c:\program files\daisytoolchain\arm-none-eabi\include\c++\10.2.1\bits\stl_vector.h **** 	{ }
 146:c:\program files\daisytoolchain\arm-none-eabi\include\c++\10.2.1\bits\stl_vector.h **** 
ARM GAS  C:\Users\Estudi\AppData\Local\Temp\ccgnIlRK.s 			page 40


 147:c:\program files\daisytoolchain\arm-none-eabi\include\c++\10.2.1\bits\stl_vector.h **** 	_Vector_impl(_Tp_alloc_type&& __a) noexcept
 148:c:\program files\daisytoolchain\arm-none-eabi\include\c++\10.2.1\bits\stl_vector.h **** 	: _Tp_alloc_type(std::move(__a))
 149:c:\program files\daisytoolchain\arm-none-eabi\include\c++\10.2.1\bits\stl_vector.h **** 	{ }
 150:c:\program files\daisytoolchain\arm-none-eabi\include\c++\10.2.1\bits\stl_vector.h **** 
 151:c:\program files\daisytoolchain\arm-none-eabi\include\c++\10.2.1\bits\stl_vector.h **** 	_Vector_impl(_Tp_alloc_type&& __a, _Vector_impl&& __rv) noexcept
 152:c:\program files\daisytoolchain\arm-none-eabi\include\c++\10.2.1\bits\stl_vector.h **** 	: _Tp_alloc_type(std::move(__a)), _Vector_impl_data(std::move(__rv))
 153:c:\program files\daisytoolchain\arm-none-eabi\include\c++\10.2.1\bits\stl_vector.h **** 	{ }
 154:c:\program files\daisytoolchain\arm-none-eabi\include\c++\10.2.1\bits\stl_vector.h **** #endif
 155:c:\program files\daisytoolchain\arm-none-eabi\include\c++\10.2.1\bits\stl_vector.h **** 
 156:c:\program files\daisytoolchain\arm-none-eabi\include\c++\10.2.1\bits\stl_vector.h **** #if _GLIBCXX_SANITIZE_STD_ALLOCATOR && _GLIBCXX_SANITIZE_VECTOR
 157:c:\program files\daisytoolchain\arm-none-eabi\include\c++\10.2.1\bits\stl_vector.h **** 	template<typename = _Tp_alloc_type>
 158:c:\program files\daisytoolchain\arm-none-eabi\include\c++\10.2.1\bits\stl_vector.h **** 	  struct _Asan
 159:c:\program files\daisytoolchain\arm-none-eabi\include\c++\10.2.1\bits\stl_vector.h **** 	  {
 160:c:\program files\daisytoolchain\arm-none-eabi\include\c++\10.2.1\bits\stl_vector.h **** 	    typedef typename __gnu_cxx::__alloc_traits<_Tp_alloc_type>
 161:c:\program files\daisytoolchain\arm-none-eabi\include\c++\10.2.1\bits\stl_vector.h **** 	      ::size_type size_type;
 162:c:\program files\daisytoolchain\arm-none-eabi\include\c++\10.2.1\bits\stl_vector.h **** 
 163:c:\program files\daisytoolchain\arm-none-eabi\include\c++\10.2.1\bits\stl_vector.h **** 	    static void _S_shrink(_Vector_impl&, size_type) { }
 164:c:\program files\daisytoolchain\arm-none-eabi\include\c++\10.2.1\bits\stl_vector.h **** 	    static void _S_on_dealloc(_Vector_impl&) { }
 165:c:\program files\daisytoolchain\arm-none-eabi\include\c++\10.2.1\bits\stl_vector.h **** 
 166:c:\program files\daisytoolchain\arm-none-eabi\include\c++\10.2.1\bits\stl_vector.h **** 	    typedef _Vector_impl& _Reinit;
 167:c:\program files\daisytoolchain\arm-none-eabi\include\c++\10.2.1\bits\stl_vector.h **** 
 168:c:\program files\daisytoolchain\arm-none-eabi\include\c++\10.2.1\bits\stl_vector.h **** 	    struct _Grow
 169:c:\program files\daisytoolchain\arm-none-eabi\include\c++\10.2.1\bits\stl_vector.h **** 	    {
 170:c:\program files\daisytoolchain\arm-none-eabi\include\c++\10.2.1\bits\stl_vector.h **** 	      _Grow(_Vector_impl&, size_type) { }
 171:c:\program files\daisytoolchain\arm-none-eabi\include\c++\10.2.1\bits\stl_vector.h **** 	      void _M_grew(size_type) { }
 172:c:\program files\daisytoolchain\arm-none-eabi\include\c++\10.2.1\bits\stl_vector.h **** 	    };
 173:c:\program files\daisytoolchain\arm-none-eabi\include\c++\10.2.1\bits\stl_vector.h **** 	  };
 174:c:\program files\daisytoolchain\arm-none-eabi\include\c++\10.2.1\bits\stl_vector.h **** 
 175:c:\program files\daisytoolchain\arm-none-eabi\include\c++\10.2.1\bits\stl_vector.h **** 	// Enable ASan annotations for memory obtained from std::allocator.
 176:c:\program files\daisytoolchain\arm-none-eabi\include\c++\10.2.1\bits\stl_vector.h **** 	template<typename _Up>
 177:c:\program files\daisytoolchain\arm-none-eabi\include\c++\10.2.1\bits\stl_vector.h **** 	  struct _Asan<allocator<_Up> >
 178:c:\program files\daisytoolchain\arm-none-eabi\include\c++\10.2.1\bits\stl_vector.h **** 	  {
 179:c:\program files\daisytoolchain\arm-none-eabi\include\c++\10.2.1\bits\stl_vector.h **** 	    typedef typename __gnu_cxx::__alloc_traits<_Tp_alloc_type>
 180:c:\program files\daisytoolchain\arm-none-eabi\include\c++\10.2.1\bits\stl_vector.h **** 	      ::size_type size_type;
 181:c:\program files\daisytoolchain\arm-none-eabi\include\c++\10.2.1\bits\stl_vector.h **** 
 182:c:\program files\daisytoolchain\arm-none-eabi\include\c++\10.2.1\bits\stl_vector.h **** 	    // Adjust ASan annotation for [_M_start, _M_end_of_storage) to
 183:c:\program files\daisytoolchain\arm-none-eabi\include\c++\10.2.1\bits\stl_vector.h **** 	    // mark end of valid region as __curr instead of __prev.
 184:c:\program files\daisytoolchain\arm-none-eabi\include\c++\10.2.1\bits\stl_vector.h **** 	    static void
 185:c:\program files\daisytoolchain\arm-none-eabi\include\c++\10.2.1\bits\stl_vector.h **** 	    _S_adjust(_Vector_impl& __impl, pointer __prev, pointer __curr)
 186:c:\program files\daisytoolchain\arm-none-eabi\include\c++\10.2.1\bits\stl_vector.h **** 	    {
 187:c:\program files\daisytoolchain\arm-none-eabi\include\c++\10.2.1\bits\stl_vector.h **** 	      __sanitizer_annotate_contiguous_container(__impl._M_start,
 188:c:\program files\daisytoolchain\arm-none-eabi\include\c++\10.2.1\bits\stl_vector.h **** 		  __impl._M_end_of_storage, __prev, __curr);
 189:c:\program files\daisytoolchain\arm-none-eabi\include\c++\10.2.1\bits\stl_vector.h **** 	    }
 190:c:\program files\daisytoolchain\arm-none-eabi\include\c++\10.2.1\bits\stl_vector.h **** 
 191:c:\program files\daisytoolchain\arm-none-eabi\include\c++\10.2.1\bits\stl_vector.h **** 	    static void
 192:c:\program files\daisytoolchain\arm-none-eabi\include\c++\10.2.1\bits\stl_vector.h **** 	    _S_grow(_Vector_impl& __impl, size_type __n)
 193:c:\program files\daisytoolchain\arm-none-eabi\include\c++\10.2.1\bits\stl_vector.h **** 	    { _S_adjust(__impl, __impl._M_finish, __impl._M_finish + __n); }
 194:c:\program files\daisytoolchain\arm-none-eabi\include\c++\10.2.1\bits\stl_vector.h **** 
 195:c:\program files\daisytoolchain\arm-none-eabi\include\c++\10.2.1\bits\stl_vector.h **** 	    static void
 196:c:\program files\daisytoolchain\arm-none-eabi\include\c++\10.2.1\bits\stl_vector.h **** 	    _S_shrink(_Vector_impl& __impl, size_type __n)
 197:c:\program files\daisytoolchain\arm-none-eabi\include\c++\10.2.1\bits\stl_vector.h **** 	    { _S_adjust(__impl, __impl._M_finish + __n, __impl._M_finish); }
 198:c:\program files\daisytoolchain\arm-none-eabi\include\c++\10.2.1\bits\stl_vector.h **** 
 199:c:\program files\daisytoolchain\arm-none-eabi\include\c++\10.2.1\bits\stl_vector.h **** 	    static void
 200:c:\program files\daisytoolchain\arm-none-eabi\include\c++\10.2.1\bits\stl_vector.h **** 	    _S_on_dealloc(_Vector_impl& __impl)
 201:c:\program files\daisytoolchain\arm-none-eabi\include\c++\10.2.1\bits\stl_vector.h **** 	    {
 202:c:\program files\daisytoolchain\arm-none-eabi\include\c++\10.2.1\bits\stl_vector.h **** 	      if (__impl._M_start)
 203:c:\program files\daisytoolchain\arm-none-eabi\include\c++\10.2.1\bits\stl_vector.h **** 		_S_adjust(__impl, __impl._M_finish, __impl._M_end_of_storage);
ARM GAS  C:\Users\Estudi\AppData\Local\Temp\ccgnIlRK.s 			page 41


 204:c:\program files\daisytoolchain\arm-none-eabi\include\c++\10.2.1\bits\stl_vector.h **** 	    }
 205:c:\program files\daisytoolchain\arm-none-eabi\include\c++\10.2.1\bits\stl_vector.h **** 
 206:c:\program files\daisytoolchain\arm-none-eabi\include\c++\10.2.1\bits\stl_vector.h **** 	    // Used on reallocation to tell ASan unused capacity is invalid.
 207:c:\program files\daisytoolchain\arm-none-eabi\include\c++\10.2.1\bits\stl_vector.h **** 	    struct _Reinit
 208:c:\program files\daisytoolchain\arm-none-eabi\include\c++\10.2.1\bits\stl_vector.h **** 	    {
 209:c:\program files\daisytoolchain\arm-none-eabi\include\c++\10.2.1\bits\stl_vector.h **** 	      explicit _Reinit(_Vector_impl& __impl) : _M_impl(__impl)
 210:c:\program files\daisytoolchain\arm-none-eabi\include\c++\10.2.1\bits\stl_vector.h **** 	      {
 211:c:\program files\daisytoolchain\arm-none-eabi\include\c++\10.2.1\bits\stl_vector.h **** 		// Mark unused capacity as valid again before deallocating it.
 212:c:\program files\daisytoolchain\arm-none-eabi\include\c++\10.2.1\bits\stl_vector.h **** 		_S_on_dealloc(_M_impl);
 213:c:\program files\daisytoolchain\arm-none-eabi\include\c++\10.2.1\bits\stl_vector.h **** 	      }
 214:c:\program files\daisytoolchain\arm-none-eabi\include\c++\10.2.1\bits\stl_vector.h **** 
 215:c:\program files\daisytoolchain\arm-none-eabi\include\c++\10.2.1\bits\stl_vector.h **** 	      ~_Reinit()
 216:c:\program files\daisytoolchain\arm-none-eabi\include\c++\10.2.1\bits\stl_vector.h **** 	      {
 217:c:\program files\daisytoolchain\arm-none-eabi\include\c++\10.2.1\bits\stl_vector.h **** 		// Mark unused capacity as invalid after reallocation.
 218:c:\program files\daisytoolchain\arm-none-eabi\include\c++\10.2.1\bits\stl_vector.h **** 		if (_M_impl._M_start)
 219:c:\program files\daisytoolchain\arm-none-eabi\include\c++\10.2.1\bits\stl_vector.h **** 		  _S_adjust(_M_impl, _M_impl._M_end_of_storage,
 220:c:\program files\daisytoolchain\arm-none-eabi\include\c++\10.2.1\bits\stl_vector.h **** 			    _M_impl._M_finish);
 221:c:\program files\daisytoolchain\arm-none-eabi\include\c++\10.2.1\bits\stl_vector.h **** 	      }
 222:c:\program files\daisytoolchain\arm-none-eabi\include\c++\10.2.1\bits\stl_vector.h **** 
 223:c:\program files\daisytoolchain\arm-none-eabi\include\c++\10.2.1\bits\stl_vector.h **** 	      _Vector_impl& _M_impl;
 224:c:\program files\daisytoolchain\arm-none-eabi\include\c++\10.2.1\bits\stl_vector.h **** 
 225:c:\program files\daisytoolchain\arm-none-eabi\include\c++\10.2.1\bits\stl_vector.h **** #if __cplusplus >= 201103L
 226:c:\program files\daisytoolchain\arm-none-eabi\include\c++\10.2.1\bits\stl_vector.h **** 	      _Reinit(const _Reinit&) = delete;
 227:c:\program files\daisytoolchain\arm-none-eabi\include\c++\10.2.1\bits\stl_vector.h **** 	      _Reinit& operator=(const _Reinit&) = delete;
 228:c:\program files\daisytoolchain\arm-none-eabi\include\c++\10.2.1\bits\stl_vector.h **** #endif
 229:c:\program files\daisytoolchain\arm-none-eabi\include\c++\10.2.1\bits\stl_vector.h **** 	    };
 230:c:\program files\daisytoolchain\arm-none-eabi\include\c++\10.2.1\bits\stl_vector.h **** 
 231:c:\program files\daisytoolchain\arm-none-eabi\include\c++\10.2.1\bits\stl_vector.h **** 	    // Tell ASan when unused capacity is initialized to be valid.
 232:c:\program files\daisytoolchain\arm-none-eabi\include\c++\10.2.1\bits\stl_vector.h **** 	    struct _Grow
 233:c:\program files\daisytoolchain\arm-none-eabi\include\c++\10.2.1\bits\stl_vector.h **** 	    {
 234:c:\program files\daisytoolchain\arm-none-eabi\include\c++\10.2.1\bits\stl_vector.h **** 	      _Grow(_Vector_impl& __impl, size_type __n)
 235:c:\program files\daisytoolchain\arm-none-eabi\include\c++\10.2.1\bits\stl_vector.h **** 	      : _M_impl(__impl), _M_n(__n)
 236:c:\program files\daisytoolchain\arm-none-eabi\include\c++\10.2.1\bits\stl_vector.h **** 	      { _S_grow(_M_impl, __n); }
 237:c:\program files\daisytoolchain\arm-none-eabi\include\c++\10.2.1\bits\stl_vector.h **** 
 238:c:\program files\daisytoolchain\arm-none-eabi\include\c++\10.2.1\bits\stl_vector.h **** 	      ~_Grow() { if (_M_n) _S_shrink(_M_impl, _M_n); }
 239:c:\program files\daisytoolchain\arm-none-eabi\include\c++\10.2.1\bits\stl_vector.h **** 
 240:c:\program files\daisytoolchain\arm-none-eabi\include\c++\10.2.1\bits\stl_vector.h **** 	      void _M_grew(size_type __n) { _M_n -= __n; }
 241:c:\program files\daisytoolchain\arm-none-eabi\include\c++\10.2.1\bits\stl_vector.h **** 
 242:c:\program files\daisytoolchain\arm-none-eabi\include\c++\10.2.1\bits\stl_vector.h **** #if __cplusplus >= 201103L
 243:c:\program files\daisytoolchain\arm-none-eabi\include\c++\10.2.1\bits\stl_vector.h **** 	      _Grow(const _Grow&) = delete;
 244:c:\program files\daisytoolchain\arm-none-eabi\include\c++\10.2.1\bits\stl_vector.h **** 	      _Grow& operator=(const _Grow&) = delete;
 245:c:\program files\daisytoolchain\arm-none-eabi\include\c++\10.2.1\bits\stl_vector.h **** #endif
 246:c:\program files\daisytoolchain\arm-none-eabi\include\c++\10.2.1\bits\stl_vector.h **** 	    private:
 247:c:\program files\daisytoolchain\arm-none-eabi\include\c++\10.2.1\bits\stl_vector.h **** 	      _Vector_impl& _M_impl;
 248:c:\program files\daisytoolchain\arm-none-eabi\include\c++\10.2.1\bits\stl_vector.h **** 	      size_type _M_n;
 249:c:\program files\daisytoolchain\arm-none-eabi\include\c++\10.2.1\bits\stl_vector.h **** 	    };
 250:c:\program files\daisytoolchain\arm-none-eabi\include\c++\10.2.1\bits\stl_vector.h **** 	  };
 251:c:\program files\daisytoolchain\arm-none-eabi\include\c++\10.2.1\bits\stl_vector.h **** 
 252:c:\program files\daisytoolchain\arm-none-eabi\include\c++\10.2.1\bits\stl_vector.h **** #define _GLIBCXX_ASAN_ANNOTATE_REINIT \
 253:c:\program files\daisytoolchain\arm-none-eabi\include\c++\10.2.1\bits\stl_vector.h ****   typename _Base::_Vector_impl::template _Asan<>::_Reinit const \
 254:c:\program files\daisytoolchain\arm-none-eabi\include\c++\10.2.1\bits\stl_vector.h **** 	__attribute__((__unused__)) __reinit_guard(this->_M_impl)
 255:c:\program files\daisytoolchain\arm-none-eabi\include\c++\10.2.1\bits\stl_vector.h **** #define _GLIBCXX_ASAN_ANNOTATE_GROW(n) \
 256:c:\program files\daisytoolchain\arm-none-eabi\include\c++\10.2.1\bits\stl_vector.h ****   typename _Base::_Vector_impl::template _Asan<>::_Grow \
 257:c:\program files\daisytoolchain\arm-none-eabi\include\c++\10.2.1\bits\stl_vector.h **** 	__attribute__((__unused__)) __grow_guard(this->_M_impl, (n))
 258:c:\program files\daisytoolchain\arm-none-eabi\include\c++\10.2.1\bits\stl_vector.h **** #define _GLIBCXX_ASAN_ANNOTATE_GREW(n) __grow_guard._M_grew(n)
 259:c:\program files\daisytoolchain\arm-none-eabi\include\c++\10.2.1\bits\stl_vector.h **** #define _GLIBCXX_ASAN_ANNOTATE_SHRINK(n) \
 260:c:\program files\daisytoolchain\arm-none-eabi\include\c++\10.2.1\bits\stl_vector.h ****   _Base::_Vector_impl::template _Asan<>::_S_shrink(this->_M_impl, n)
ARM GAS  C:\Users\Estudi\AppData\Local\Temp\ccgnIlRK.s 			page 42


 261:c:\program files\daisytoolchain\arm-none-eabi\include\c++\10.2.1\bits\stl_vector.h **** #define _GLIBCXX_ASAN_ANNOTATE_BEFORE_DEALLOC \
 262:c:\program files\daisytoolchain\arm-none-eabi\include\c++\10.2.1\bits\stl_vector.h ****   _Base::_Vector_impl::template _Asan<>::_S_on_dealloc(this->_M_impl)
 263:c:\program files\daisytoolchain\arm-none-eabi\include\c++\10.2.1\bits\stl_vector.h **** #else // ! (_GLIBCXX_SANITIZE_STD_ALLOCATOR && _GLIBCXX_SANITIZE_VECTOR)
 264:c:\program files\daisytoolchain\arm-none-eabi\include\c++\10.2.1\bits\stl_vector.h **** #define _GLIBCXX_ASAN_ANNOTATE_REINIT
 265:c:\program files\daisytoolchain\arm-none-eabi\include\c++\10.2.1\bits\stl_vector.h **** #define _GLIBCXX_ASAN_ANNOTATE_GROW(n)
 266:c:\program files\daisytoolchain\arm-none-eabi\include\c++\10.2.1\bits\stl_vector.h **** #define _GLIBCXX_ASAN_ANNOTATE_GREW(n)
 267:c:\program files\daisytoolchain\arm-none-eabi\include\c++\10.2.1\bits\stl_vector.h **** #define _GLIBCXX_ASAN_ANNOTATE_SHRINK(n)
 268:c:\program files\daisytoolchain\arm-none-eabi\include\c++\10.2.1\bits\stl_vector.h **** #define _GLIBCXX_ASAN_ANNOTATE_BEFORE_DEALLOC
 269:c:\program files\daisytoolchain\arm-none-eabi\include\c++\10.2.1\bits\stl_vector.h **** #endif // _GLIBCXX_SANITIZE_STD_ALLOCATOR && _GLIBCXX_SANITIZE_VECTOR
 270:c:\program files\daisytoolchain\arm-none-eabi\include\c++\10.2.1\bits\stl_vector.h ****       };
 271:c:\program files\daisytoolchain\arm-none-eabi\include\c++\10.2.1\bits\stl_vector.h **** 
 272:c:\program files\daisytoolchain\arm-none-eabi\include\c++\10.2.1\bits\stl_vector.h ****     public:
 273:c:\program files\daisytoolchain\arm-none-eabi\include\c++\10.2.1\bits\stl_vector.h ****       typedef _Alloc allocator_type;
 274:c:\program files\daisytoolchain\arm-none-eabi\include\c++\10.2.1\bits\stl_vector.h **** 
 275:c:\program files\daisytoolchain\arm-none-eabi\include\c++\10.2.1\bits\stl_vector.h ****       _Tp_alloc_type&
 276:c:\program files\daisytoolchain\arm-none-eabi\include\c++\10.2.1\bits\stl_vector.h ****       _M_get_Tp_allocator() _GLIBCXX_NOEXCEPT
 277:c:\program files\daisytoolchain\arm-none-eabi\include\c++\10.2.1\bits\stl_vector.h ****       { return this->_M_impl; }
 278:c:\program files\daisytoolchain\arm-none-eabi\include\c++\10.2.1\bits\stl_vector.h **** 
 279:c:\program files\daisytoolchain\arm-none-eabi\include\c++\10.2.1\bits\stl_vector.h ****       const _Tp_alloc_type&
 280:c:\program files\daisytoolchain\arm-none-eabi\include\c++\10.2.1\bits\stl_vector.h ****       _M_get_Tp_allocator() const _GLIBCXX_NOEXCEPT
 281:c:\program files\daisytoolchain\arm-none-eabi\include\c++\10.2.1\bits\stl_vector.h ****       { return this->_M_impl; }
 282:c:\program files\daisytoolchain\arm-none-eabi\include\c++\10.2.1\bits\stl_vector.h **** 
 283:c:\program files\daisytoolchain\arm-none-eabi\include\c++\10.2.1\bits\stl_vector.h ****       allocator_type
 284:c:\program files\daisytoolchain\arm-none-eabi\include\c++\10.2.1\bits\stl_vector.h ****       get_allocator() const _GLIBCXX_NOEXCEPT
 285:c:\program files\daisytoolchain\arm-none-eabi\include\c++\10.2.1\bits\stl_vector.h ****       { return allocator_type(_M_get_Tp_allocator()); }
 286:c:\program files\daisytoolchain\arm-none-eabi\include\c++\10.2.1\bits\stl_vector.h **** 
 287:c:\program files\daisytoolchain\arm-none-eabi\include\c++\10.2.1\bits\stl_vector.h **** #if __cplusplus >= 201103L
 288:c:\program files\daisytoolchain\arm-none-eabi\include\c++\10.2.1\bits\stl_vector.h ****       _Vector_base() = default;
 289:c:\program files\daisytoolchain\arm-none-eabi\include\c++\10.2.1\bits\stl_vector.h **** #else
 290:c:\program files\daisytoolchain\arm-none-eabi\include\c++\10.2.1\bits\stl_vector.h ****       _Vector_base() { }
 291:c:\program files\daisytoolchain\arm-none-eabi\include\c++\10.2.1\bits\stl_vector.h **** #endif
 292:c:\program files\daisytoolchain\arm-none-eabi\include\c++\10.2.1\bits\stl_vector.h **** 
 293:c:\program files\daisytoolchain\arm-none-eabi\include\c++\10.2.1\bits\stl_vector.h ****       _Vector_base(const allocator_type& __a) _GLIBCXX_NOEXCEPT
 294:c:\program files\daisytoolchain\arm-none-eabi\include\c++\10.2.1\bits\stl_vector.h ****       : _M_impl(__a) { }
 295:c:\program files\daisytoolchain\arm-none-eabi\include\c++\10.2.1\bits\stl_vector.h **** 
 296:c:\program files\daisytoolchain\arm-none-eabi\include\c++\10.2.1\bits\stl_vector.h ****       // Kept for ABI compatibility.
 297:c:\program files\daisytoolchain\arm-none-eabi\include\c++\10.2.1\bits\stl_vector.h **** #if !_GLIBCXX_INLINE_VERSION
 298:c:\program files\daisytoolchain\arm-none-eabi\include\c++\10.2.1\bits\stl_vector.h ****       _Vector_base(size_t __n)
 299:c:\program files\daisytoolchain\arm-none-eabi\include\c++\10.2.1\bits\stl_vector.h ****       : _M_impl()
 300:c:\program files\daisytoolchain\arm-none-eabi\include\c++\10.2.1\bits\stl_vector.h ****       { _M_create_storage(__n); }
 301:c:\program files\daisytoolchain\arm-none-eabi\include\c++\10.2.1\bits\stl_vector.h **** #endif
 302:c:\program files\daisytoolchain\arm-none-eabi\include\c++\10.2.1\bits\stl_vector.h **** 
 303:c:\program files\daisytoolchain\arm-none-eabi\include\c++\10.2.1\bits\stl_vector.h ****       _Vector_base(size_t __n, const allocator_type& __a)
 304:c:\program files\daisytoolchain\arm-none-eabi\include\c++\10.2.1\bits\stl_vector.h ****       : _M_impl(__a)
 305:c:\program files\daisytoolchain\arm-none-eabi\include\c++\10.2.1\bits\stl_vector.h ****       { _M_create_storage(__n); }
 306:c:\program files\daisytoolchain\arm-none-eabi\include\c++\10.2.1\bits\stl_vector.h **** 
 307:c:\program files\daisytoolchain\arm-none-eabi\include\c++\10.2.1\bits\stl_vector.h **** #if __cplusplus >= 201103L
 308:c:\program files\daisytoolchain\arm-none-eabi\include\c++\10.2.1\bits\stl_vector.h ****       _Vector_base(_Vector_base&&) = default;
 309:c:\program files\daisytoolchain\arm-none-eabi\include\c++\10.2.1\bits\stl_vector.h **** 
 310:c:\program files\daisytoolchain\arm-none-eabi\include\c++\10.2.1\bits\stl_vector.h ****       // Kept for ABI compatibility.
 311:c:\program files\daisytoolchain\arm-none-eabi\include\c++\10.2.1\bits\stl_vector.h **** # if !_GLIBCXX_INLINE_VERSION
 312:c:\program files\daisytoolchain\arm-none-eabi\include\c++\10.2.1\bits\stl_vector.h ****       _Vector_base(_Tp_alloc_type&& __a) noexcept
 313:c:\program files\daisytoolchain\arm-none-eabi\include\c++\10.2.1\bits\stl_vector.h ****       : _M_impl(std::move(__a)) { }
 314:c:\program files\daisytoolchain\arm-none-eabi\include\c++\10.2.1\bits\stl_vector.h **** 
 315:c:\program files\daisytoolchain\arm-none-eabi\include\c++\10.2.1\bits\stl_vector.h ****       _Vector_base(_Vector_base&& __x, const allocator_type& __a)
 316:c:\program files\daisytoolchain\arm-none-eabi\include\c++\10.2.1\bits\stl_vector.h ****       : _M_impl(__a)
 317:c:\program files\daisytoolchain\arm-none-eabi\include\c++\10.2.1\bits\stl_vector.h ****       {
ARM GAS  C:\Users\Estudi\AppData\Local\Temp\ccgnIlRK.s 			page 43


 318:c:\program files\daisytoolchain\arm-none-eabi\include\c++\10.2.1\bits\stl_vector.h **** 	if (__x.get_allocator() == __a)
 319:c:\program files\daisytoolchain\arm-none-eabi\include\c++\10.2.1\bits\stl_vector.h **** 	  this->_M_impl._M_swap_data(__x._M_impl);
 320:c:\program files\daisytoolchain\arm-none-eabi\include\c++\10.2.1\bits\stl_vector.h **** 	else
 321:c:\program files\daisytoolchain\arm-none-eabi\include\c++\10.2.1\bits\stl_vector.h **** 	  {
 322:c:\program files\daisytoolchain\arm-none-eabi\include\c++\10.2.1\bits\stl_vector.h **** 	    size_t __n = __x._M_impl._M_finish - __x._M_impl._M_start;
 323:c:\program files\daisytoolchain\arm-none-eabi\include\c++\10.2.1\bits\stl_vector.h **** 	    _M_create_storage(__n);
 324:c:\program files\daisytoolchain\arm-none-eabi\include\c++\10.2.1\bits\stl_vector.h **** 	  }
 325:c:\program files\daisytoolchain\arm-none-eabi\include\c++\10.2.1\bits\stl_vector.h ****       }
 326:c:\program files\daisytoolchain\arm-none-eabi\include\c++\10.2.1\bits\stl_vector.h **** # endif
 327:c:\program files\daisytoolchain\arm-none-eabi\include\c++\10.2.1\bits\stl_vector.h **** 
 328:c:\program files\daisytoolchain\arm-none-eabi\include\c++\10.2.1\bits\stl_vector.h ****       _Vector_base(const allocator_type& __a, _Vector_base&& __x)
 329:c:\program files\daisytoolchain\arm-none-eabi\include\c++\10.2.1\bits\stl_vector.h ****       : _M_impl(_Tp_alloc_type(__a), std::move(__x._M_impl))
 330:c:\program files\daisytoolchain\arm-none-eabi\include\c++\10.2.1\bits\stl_vector.h ****       { }
 331:c:\program files\daisytoolchain\arm-none-eabi\include\c++\10.2.1\bits\stl_vector.h **** #endif
 332:c:\program files\daisytoolchain\arm-none-eabi\include\c++\10.2.1\bits\stl_vector.h **** 
 333:c:\program files\daisytoolchain\arm-none-eabi\include\c++\10.2.1\bits\stl_vector.h ****       ~_Vector_base() _GLIBCXX_NOEXCEPT
 334:c:\program files\daisytoolchain\arm-none-eabi\include\c++\10.2.1\bits\stl_vector.h ****       {
 335:c:\program files\daisytoolchain\arm-none-eabi\include\c++\10.2.1\bits\stl_vector.h **** 	_M_deallocate(_M_impl._M_start,
 336:c:\program files\daisytoolchain\arm-none-eabi\include\c++\10.2.1\bits\stl_vector.h **** 		      _M_impl._M_end_of_storage - _M_impl._M_start);
 337:c:\program files\daisytoolchain\arm-none-eabi\include\c++\10.2.1\bits\stl_vector.h ****       }
 338:c:\program files\daisytoolchain\arm-none-eabi\include\c++\10.2.1\bits\stl_vector.h **** 
 339:c:\program files\daisytoolchain\arm-none-eabi\include\c++\10.2.1\bits\stl_vector.h ****     public:
 340:c:\program files\daisytoolchain\arm-none-eabi\include\c++\10.2.1\bits\stl_vector.h ****       _Vector_impl _M_impl;
 341:c:\program files\daisytoolchain\arm-none-eabi\include\c++\10.2.1\bits\stl_vector.h **** 
 342:c:\program files\daisytoolchain\arm-none-eabi\include\c++\10.2.1\bits\stl_vector.h ****       pointer
 343:c:\program files\daisytoolchain\arm-none-eabi\include\c++\10.2.1\bits\stl_vector.h ****       _M_allocate(size_t __n)
 344:c:\program files\daisytoolchain\arm-none-eabi\include\c++\10.2.1\bits\stl_vector.h ****       {
 345:c:\program files\daisytoolchain\arm-none-eabi\include\c++\10.2.1\bits\stl_vector.h **** 	typedef __gnu_cxx::__alloc_traits<_Tp_alloc_type> _Tr;
 346:c:\program files\daisytoolchain\arm-none-eabi\include\c++\10.2.1\bits\stl_vector.h **** 	return __n != 0 ? _Tr::allocate(_M_impl, __n) : pointer();
 347:c:\program files\daisytoolchain\arm-none-eabi\include\c++\10.2.1\bits\stl_vector.h ****       }
 348:c:\program files\daisytoolchain\arm-none-eabi\include\c++\10.2.1\bits\stl_vector.h **** 
 349:c:\program files\daisytoolchain\arm-none-eabi\include\c++\10.2.1\bits\stl_vector.h ****       void
 350:c:\program files\daisytoolchain\arm-none-eabi\include\c++\10.2.1\bits\stl_vector.h ****       _M_deallocate(pointer __p, size_t __n)
 351:c:\program files\daisytoolchain\arm-none-eabi\include\c++\10.2.1\bits\stl_vector.h ****       {
 352:c:\program files\daisytoolchain\arm-none-eabi\include\c++\10.2.1\bits\stl_vector.h **** 	typedef __gnu_cxx::__alloc_traits<_Tp_alloc_type> _Tr;
 353:c:\program files\daisytoolchain\arm-none-eabi\include\c++\10.2.1\bits\stl_vector.h **** 	if (__p)
 354:c:\program files\daisytoolchain\arm-none-eabi\include\c++\10.2.1\bits\stl_vector.h **** 	  _Tr::deallocate(_M_impl, __p, __n);
 355:c:\program files\daisytoolchain\arm-none-eabi\include\c++\10.2.1\bits\stl_vector.h ****       }
 356:c:\program files\daisytoolchain\arm-none-eabi\include\c++\10.2.1\bits\stl_vector.h **** 
 357:c:\program files\daisytoolchain\arm-none-eabi\include\c++\10.2.1\bits\stl_vector.h ****     protected:
 358:c:\program files\daisytoolchain\arm-none-eabi\include\c++\10.2.1\bits\stl_vector.h ****       void
 359:c:\program files\daisytoolchain\arm-none-eabi\include\c++\10.2.1\bits\stl_vector.h ****       _M_create_storage(size_t __n)
 360:c:\program files\daisytoolchain\arm-none-eabi\include\c++\10.2.1\bits\stl_vector.h ****       {
 361:c:\program files\daisytoolchain\arm-none-eabi\include\c++\10.2.1\bits\stl_vector.h **** 	this->_M_impl._M_start = this->_M_allocate(__n);
 362:c:\program files\daisytoolchain\arm-none-eabi\include\c++\10.2.1\bits\stl_vector.h **** 	this->_M_impl._M_finish = this->_M_impl._M_start;
 363:c:\program files\daisytoolchain\arm-none-eabi\include\c++\10.2.1\bits\stl_vector.h **** 	this->_M_impl._M_end_of_storage = this->_M_impl._M_start + __n;
 364:c:\program files\daisytoolchain\arm-none-eabi\include\c++\10.2.1\bits\stl_vector.h ****       }
 365:c:\program files\daisytoolchain\arm-none-eabi\include\c++\10.2.1\bits\stl_vector.h ****     };
 366:c:\program files\daisytoolchain\arm-none-eabi\include\c++\10.2.1\bits\stl_vector.h **** 
 367:c:\program files\daisytoolchain\arm-none-eabi\include\c++\10.2.1\bits\stl_vector.h ****   /**
 368:c:\program files\daisytoolchain\arm-none-eabi\include\c++\10.2.1\bits\stl_vector.h ****    *  @brief A standard container which offers fixed time access to
 369:c:\program files\daisytoolchain\arm-none-eabi\include\c++\10.2.1\bits\stl_vector.h ****    *  individual elements in any order.
 370:c:\program files\daisytoolchain\arm-none-eabi\include\c++\10.2.1\bits\stl_vector.h ****    *
 371:c:\program files\daisytoolchain\arm-none-eabi\include\c++\10.2.1\bits\stl_vector.h ****    *  @ingroup sequences
 372:c:\program files\daisytoolchain\arm-none-eabi\include\c++\10.2.1\bits\stl_vector.h ****    *
 373:c:\program files\daisytoolchain\arm-none-eabi\include\c++\10.2.1\bits\stl_vector.h ****    *  @tparam _Tp  Type of element.
 374:c:\program files\daisytoolchain\arm-none-eabi\include\c++\10.2.1\bits\stl_vector.h ****    *  @tparam _Alloc  Allocator type, defaults to allocator<_Tp>.
ARM GAS  C:\Users\Estudi\AppData\Local\Temp\ccgnIlRK.s 			page 44


 375:c:\program files\daisytoolchain\arm-none-eabi\include\c++\10.2.1\bits\stl_vector.h ****    *
 376:c:\program files\daisytoolchain\arm-none-eabi\include\c++\10.2.1\bits\stl_vector.h ****    *  Meets the requirements of a <a href="tables.html#65">container</a>, a
 377:c:\program files\daisytoolchain\arm-none-eabi\include\c++\10.2.1\bits\stl_vector.h ****    *  <a href="tables.html#66">reversible container</a>, and a
 378:c:\program files\daisytoolchain\arm-none-eabi\include\c++\10.2.1\bits\stl_vector.h ****    *  <a href="tables.html#67">sequence</a>, including the
 379:c:\program files\daisytoolchain\arm-none-eabi\include\c++\10.2.1\bits\stl_vector.h ****    *  <a href="tables.html#68">optional sequence requirements</a> with the
 380:c:\program files\daisytoolchain\arm-none-eabi\include\c++\10.2.1\bits\stl_vector.h ****    *  %exception of @c push_front and @c pop_front.
 381:c:\program files\daisytoolchain\arm-none-eabi\include\c++\10.2.1\bits\stl_vector.h ****    *
 382:c:\program files\daisytoolchain\arm-none-eabi\include\c++\10.2.1\bits\stl_vector.h ****    *  In some terminology a %vector can be described as a dynamic
 383:c:\program files\daisytoolchain\arm-none-eabi\include\c++\10.2.1\bits\stl_vector.h ****    *  C-style array, it offers fast and efficient access to individual
 384:c:\program files\daisytoolchain\arm-none-eabi\include\c++\10.2.1\bits\stl_vector.h ****    *  elements in any order and saves the user from worrying about
 385:c:\program files\daisytoolchain\arm-none-eabi\include\c++\10.2.1\bits\stl_vector.h ****    *  memory and size allocation.  Subscripting ( @c [] ) access is
 386:c:\program files\daisytoolchain\arm-none-eabi\include\c++\10.2.1\bits\stl_vector.h ****    *  also provided as with C-style arrays.
 387:c:\program files\daisytoolchain\arm-none-eabi\include\c++\10.2.1\bits\stl_vector.h ****   */
 388:c:\program files\daisytoolchain\arm-none-eabi\include\c++\10.2.1\bits\stl_vector.h ****   template<typename _Tp, typename _Alloc = std::allocator<_Tp> >
 389:c:\program files\daisytoolchain\arm-none-eabi\include\c++\10.2.1\bits\stl_vector.h ****     class vector : protected _Vector_base<_Tp, _Alloc>
 390:c:\program files\daisytoolchain\arm-none-eabi\include\c++\10.2.1\bits\stl_vector.h ****     {
 391:c:\program files\daisytoolchain\arm-none-eabi\include\c++\10.2.1\bits\stl_vector.h **** #ifdef _GLIBCXX_CONCEPT_CHECKS
 392:c:\program files\daisytoolchain\arm-none-eabi\include\c++\10.2.1\bits\stl_vector.h ****       // Concept requirements.
 393:c:\program files\daisytoolchain\arm-none-eabi\include\c++\10.2.1\bits\stl_vector.h ****       typedef typename _Alloc::value_type		_Alloc_value_type;
 394:c:\program files\daisytoolchain\arm-none-eabi\include\c++\10.2.1\bits\stl_vector.h **** # if __cplusplus < 201103L
 395:c:\program files\daisytoolchain\arm-none-eabi\include\c++\10.2.1\bits\stl_vector.h ****       __glibcxx_class_requires(_Tp, _SGIAssignableConcept)
 396:c:\program files\daisytoolchain\arm-none-eabi\include\c++\10.2.1\bits\stl_vector.h **** # endif
 397:c:\program files\daisytoolchain\arm-none-eabi\include\c++\10.2.1\bits\stl_vector.h ****       __glibcxx_class_requires2(_Tp, _Alloc_value_type, _SameTypeConcept)
 398:c:\program files\daisytoolchain\arm-none-eabi\include\c++\10.2.1\bits\stl_vector.h **** #endif
 399:c:\program files\daisytoolchain\arm-none-eabi\include\c++\10.2.1\bits\stl_vector.h **** 
 400:c:\program files\daisytoolchain\arm-none-eabi\include\c++\10.2.1\bits\stl_vector.h **** #if __cplusplus >= 201103L
 401:c:\program files\daisytoolchain\arm-none-eabi\include\c++\10.2.1\bits\stl_vector.h ****       static_assert(is_same<typename remove_cv<_Tp>::type, _Tp>::value,
 402:c:\program files\daisytoolchain\arm-none-eabi\include\c++\10.2.1\bits\stl_vector.h **** 	  "std::vector must have a non-const, non-volatile value_type");
 403:c:\program files\daisytoolchain\arm-none-eabi\include\c++\10.2.1\bits\stl_vector.h **** # if __cplusplus > 201703L || defined __STRICT_ANSI__
 404:c:\program files\daisytoolchain\arm-none-eabi\include\c++\10.2.1\bits\stl_vector.h ****       static_assert(is_same<typename _Alloc::value_type, _Tp>::value,
 405:c:\program files\daisytoolchain\arm-none-eabi\include\c++\10.2.1\bits\stl_vector.h **** 	  "std::vector must have the same value_type as its allocator");
 406:c:\program files\daisytoolchain\arm-none-eabi\include\c++\10.2.1\bits\stl_vector.h **** # endif
 407:c:\program files\daisytoolchain\arm-none-eabi\include\c++\10.2.1\bits\stl_vector.h **** #endif
 408:c:\program files\daisytoolchain\arm-none-eabi\include\c++\10.2.1\bits\stl_vector.h **** 
 409:c:\program files\daisytoolchain\arm-none-eabi\include\c++\10.2.1\bits\stl_vector.h ****       typedef _Vector_base<_Tp, _Alloc>			_Base;
 410:c:\program files\daisytoolchain\arm-none-eabi\include\c++\10.2.1\bits\stl_vector.h ****       typedef typename _Base::_Tp_alloc_type		_Tp_alloc_type;
 411:c:\program files\daisytoolchain\arm-none-eabi\include\c++\10.2.1\bits\stl_vector.h ****       typedef __gnu_cxx::__alloc_traits<_Tp_alloc_type>	_Alloc_traits;
 412:c:\program files\daisytoolchain\arm-none-eabi\include\c++\10.2.1\bits\stl_vector.h **** 
 413:c:\program files\daisytoolchain\arm-none-eabi\include\c++\10.2.1\bits\stl_vector.h ****     public:
 414:c:\program files\daisytoolchain\arm-none-eabi\include\c++\10.2.1\bits\stl_vector.h ****       typedef _Tp					value_type;
 415:c:\program files\daisytoolchain\arm-none-eabi\include\c++\10.2.1\bits\stl_vector.h ****       typedef typename _Base::pointer			pointer;
 416:c:\program files\daisytoolchain\arm-none-eabi\include\c++\10.2.1\bits\stl_vector.h ****       typedef typename _Alloc_traits::const_pointer	const_pointer;
 417:c:\program files\daisytoolchain\arm-none-eabi\include\c++\10.2.1\bits\stl_vector.h ****       typedef typename _Alloc_traits::reference		reference;
 418:c:\program files\daisytoolchain\arm-none-eabi\include\c++\10.2.1\bits\stl_vector.h ****       typedef typename _Alloc_traits::const_reference	const_reference;
 419:c:\program files\daisytoolchain\arm-none-eabi\include\c++\10.2.1\bits\stl_vector.h ****       typedef __gnu_cxx::__normal_iterator<pointer, vector> iterator;
 420:c:\program files\daisytoolchain\arm-none-eabi\include\c++\10.2.1\bits\stl_vector.h ****       typedef __gnu_cxx::__normal_iterator<const_pointer, vector>
 421:c:\program files\daisytoolchain\arm-none-eabi\include\c++\10.2.1\bits\stl_vector.h ****       const_iterator;
 422:c:\program files\daisytoolchain\arm-none-eabi\include\c++\10.2.1\bits\stl_vector.h ****       typedef std::reverse_iterator<const_iterator>	const_reverse_iterator;
 423:c:\program files\daisytoolchain\arm-none-eabi\include\c++\10.2.1\bits\stl_vector.h ****       typedef std::reverse_iterator<iterator>		reverse_iterator;
 424:c:\program files\daisytoolchain\arm-none-eabi\include\c++\10.2.1\bits\stl_vector.h ****       typedef size_t					size_type;
 425:c:\program files\daisytoolchain\arm-none-eabi\include\c++\10.2.1\bits\stl_vector.h ****       typedef ptrdiff_t					difference_type;
 426:c:\program files\daisytoolchain\arm-none-eabi\include\c++\10.2.1\bits\stl_vector.h ****       typedef _Alloc					allocator_type;
 427:c:\program files\daisytoolchain\arm-none-eabi\include\c++\10.2.1\bits\stl_vector.h **** 
 428:c:\program files\daisytoolchain\arm-none-eabi\include\c++\10.2.1\bits\stl_vector.h ****     private:
 429:c:\program files\daisytoolchain\arm-none-eabi\include\c++\10.2.1\bits\stl_vector.h **** #if __cplusplus >= 201103L
 430:c:\program files\daisytoolchain\arm-none-eabi\include\c++\10.2.1\bits\stl_vector.h ****       static constexpr bool
 431:c:\program files\daisytoolchain\arm-none-eabi\include\c++\10.2.1\bits\stl_vector.h ****       _S_nothrow_relocate(true_type)
ARM GAS  C:\Users\Estudi\AppData\Local\Temp\ccgnIlRK.s 			page 45


 432:c:\program files\daisytoolchain\arm-none-eabi\include\c++\10.2.1\bits\stl_vector.h ****       {
 433:c:\program files\daisytoolchain\arm-none-eabi\include\c++\10.2.1\bits\stl_vector.h **** 	return noexcept(std::__relocate_a(std::declval<pointer>(),
 434:c:\program files\daisytoolchain\arm-none-eabi\include\c++\10.2.1\bits\stl_vector.h **** 					  std::declval<pointer>(),
 435:c:\program files\daisytoolchain\arm-none-eabi\include\c++\10.2.1\bits\stl_vector.h **** 					  std::declval<pointer>(),
 436:c:\program files\daisytoolchain\arm-none-eabi\include\c++\10.2.1\bits\stl_vector.h **** 					  std::declval<_Tp_alloc_type&>()));
 437:c:\program files\daisytoolchain\arm-none-eabi\include\c++\10.2.1\bits\stl_vector.h ****       }
 438:c:\program files\daisytoolchain\arm-none-eabi\include\c++\10.2.1\bits\stl_vector.h **** 
 439:c:\program files\daisytoolchain\arm-none-eabi\include\c++\10.2.1\bits\stl_vector.h ****       static constexpr bool
 440:c:\program files\daisytoolchain\arm-none-eabi\include\c++\10.2.1\bits\stl_vector.h ****       _S_nothrow_relocate(false_type)
 441:c:\program files\daisytoolchain\arm-none-eabi\include\c++\10.2.1\bits\stl_vector.h ****       { return false; }
 442:c:\program files\daisytoolchain\arm-none-eabi\include\c++\10.2.1\bits\stl_vector.h **** 
 443:c:\program files\daisytoolchain\arm-none-eabi\include\c++\10.2.1\bits\stl_vector.h ****       static constexpr bool
 444:c:\program files\daisytoolchain\arm-none-eabi\include\c++\10.2.1\bits\stl_vector.h ****       _S_use_relocate()
 445:c:\program files\daisytoolchain\arm-none-eabi\include\c++\10.2.1\bits\stl_vector.h ****       {
 446:c:\program files\daisytoolchain\arm-none-eabi\include\c++\10.2.1\bits\stl_vector.h **** 	// Instantiating std::__relocate_a might cause an error outside the
 447:c:\program files\daisytoolchain\arm-none-eabi\include\c++\10.2.1\bits\stl_vector.h **** 	// immediate context (in __relocate_object_a's noexcept-specifier),
 448:c:\program files\daisytoolchain\arm-none-eabi\include\c++\10.2.1\bits\stl_vector.h **** 	// so only do it if we know the type can be move-inserted into *this.
 449:c:\program files\daisytoolchain\arm-none-eabi\include\c++\10.2.1\bits\stl_vector.h **** 	return _S_nothrow_relocate(__is_move_insertable<_Tp_alloc_type>{});
 450:c:\program files\daisytoolchain\arm-none-eabi\include\c++\10.2.1\bits\stl_vector.h ****       }
 451:c:\program files\daisytoolchain\arm-none-eabi\include\c++\10.2.1\bits\stl_vector.h **** 
 452:c:\program files\daisytoolchain\arm-none-eabi\include\c++\10.2.1\bits\stl_vector.h ****       static pointer
 453:c:\program files\daisytoolchain\arm-none-eabi\include\c++\10.2.1\bits\stl_vector.h ****       _S_do_relocate(pointer __first, pointer __last, pointer __result,
 454:c:\program files\daisytoolchain\arm-none-eabi\include\c++\10.2.1\bits\stl_vector.h **** 		     _Tp_alloc_type& __alloc, true_type) noexcept
 455:c:\program files\daisytoolchain\arm-none-eabi\include\c++\10.2.1\bits\stl_vector.h ****       {
 456:c:\program files\daisytoolchain\arm-none-eabi\include\c++\10.2.1\bits\stl_vector.h **** 	return std::__relocate_a(__first, __last, __result, __alloc);
 457:c:\program files\daisytoolchain\arm-none-eabi\include\c++\10.2.1\bits\stl_vector.h ****       }
 458:c:\program files\daisytoolchain\arm-none-eabi\include\c++\10.2.1\bits\stl_vector.h **** 
 459:c:\program files\daisytoolchain\arm-none-eabi\include\c++\10.2.1\bits\stl_vector.h ****       static pointer
 460:c:\program files\daisytoolchain\arm-none-eabi\include\c++\10.2.1\bits\stl_vector.h ****       _S_do_relocate(pointer, pointer, pointer __result,
 461:c:\program files\daisytoolchain\arm-none-eabi\include\c++\10.2.1\bits\stl_vector.h **** 		     _Tp_alloc_type&, false_type) noexcept
 462:c:\program files\daisytoolchain\arm-none-eabi\include\c++\10.2.1\bits\stl_vector.h ****       { return __result; }
 463:c:\program files\daisytoolchain\arm-none-eabi\include\c++\10.2.1\bits\stl_vector.h **** 
 464:c:\program files\daisytoolchain\arm-none-eabi\include\c++\10.2.1\bits\stl_vector.h ****       static pointer
 465:c:\program files\daisytoolchain\arm-none-eabi\include\c++\10.2.1\bits\stl_vector.h ****       _S_relocate(pointer __first, pointer __last, pointer __result,
 466:c:\program files\daisytoolchain\arm-none-eabi\include\c++\10.2.1\bits\stl_vector.h **** 		  _Tp_alloc_type& __alloc) noexcept
 467:c:\program files\daisytoolchain\arm-none-eabi\include\c++\10.2.1\bits\stl_vector.h ****       {
 468:c:\program files\daisytoolchain\arm-none-eabi\include\c++\10.2.1\bits\stl_vector.h **** 	using __do_it = __bool_constant<_S_use_relocate()>;
 469:c:\program files\daisytoolchain\arm-none-eabi\include\c++\10.2.1\bits\stl_vector.h **** 	return _S_do_relocate(__first, __last, __result, __alloc, __do_it{});
 470:c:\program files\daisytoolchain\arm-none-eabi\include\c++\10.2.1\bits\stl_vector.h ****       }
 471:c:\program files\daisytoolchain\arm-none-eabi\include\c++\10.2.1\bits\stl_vector.h **** #endif // C++11
 472:c:\program files\daisytoolchain\arm-none-eabi\include\c++\10.2.1\bits\stl_vector.h **** 
 473:c:\program files\daisytoolchain\arm-none-eabi\include\c++\10.2.1\bits\stl_vector.h ****     protected:
 474:c:\program files\daisytoolchain\arm-none-eabi\include\c++\10.2.1\bits\stl_vector.h ****       using _Base::_M_allocate;
 475:c:\program files\daisytoolchain\arm-none-eabi\include\c++\10.2.1\bits\stl_vector.h ****       using _Base::_M_deallocate;
 476:c:\program files\daisytoolchain\arm-none-eabi\include\c++\10.2.1\bits\stl_vector.h ****       using _Base::_M_impl;
 477:c:\program files\daisytoolchain\arm-none-eabi\include\c++\10.2.1\bits\stl_vector.h ****       using _Base::_M_get_Tp_allocator;
 478:c:\program files\daisytoolchain\arm-none-eabi\include\c++\10.2.1\bits\stl_vector.h **** 
 479:c:\program files\daisytoolchain\arm-none-eabi\include\c++\10.2.1\bits\stl_vector.h ****     public:
 480:c:\program files\daisytoolchain\arm-none-eabi\include\c++\10.2.1\bits\stl_vector.h ****       // [23.2.4.1] construct/copy/destroy
 481:c:\program files\daisytoolchain\arm-none-eabi\include\c++\10.2.1\bits\stl_vector.h ****       // (assign() and get_allocator() are also listed in this section)
 482:c:\program files\daisytoolchain\arm-none-eabi\include\c++\10.2.1\bits\stl_vector.h **** 
 483:c:\program files\daisytoolchain\arm-none-eabi\include\c++\10.2.1\bits\stl_vector.h ****       /**
 484:c:\program files\daisytoolchain\arm-none-eabi\include\c++\10.2.1\bits\stl_vector.h ****        *  @brief  Creates a %vector with no elements.
 485:c:\program files\daisytoolchain\arm-none-eabi\include\c++\10.2.1\bits\stl_vector.h ****        */
 486:c:\program files\daisytoolchain\arm-none-eabi\include\c++\10.2.1\bits\stl_vector.h **** #if __cplusplus >= 201103L
 487:c:\program files\daisytoolchain\arm-none-eabi\include\c++\10.2.1\bits\stl_vector.h ****       vector() = default;
 413              		.loc 4 487 7 is_stmt 1 view .LVU106
ARM GAS  C:\Users\Estudi\AppData\Local\Temp\ccgnIlRK.s 			page 46


 414              	.LBB264:
 415              	.LBI253:
 288:c:\program files\daisytoolchain\arm-none-eabi\include\c++\10.2.1\bits\stl_vector.h **** #else
 416              		.loc 4 288 7 view .LVU107
 417              	.LBB262:
 418              	.LBI254:
 131:c:\program files\daisytoolchain\arm-none-eabi\include\c++\10.2.1\bits\stl_vector.h **** 	    is_nothrow_default_constructible<_Tp_alloc_type>::value)
 419              		.loc 4 131 2 view .LVU108
 420              	.LBB258:
 421              	.LBI258:
 422              		.file 5 "c:\\program files\\daisytoolchain\\arm-none-eabi\\include\\c++\\10.2.1\\bits\\allocator.h
   1:c:\program files\daisytoolchain\arm-none-eabi\include\c++\10.2.1\bits\allocator.h **** // Allocators -*- C++ -*-
   2:c:\program files\daisytoolchain\arm-none-eabi\include\c++\10.2.1\bits\allocator.h **** 
   3:c:\program files\daisytoolchain\arm-none-eabi\include\c++\10.2.1\bits\allocator.h **** // Copyright (C) 2001-2020 Free Software Foundation, Inc.
   4:c:\program files\daisytoolchain\arm-none-eabi\include\c++\10.2.1\bits\allocator.h **** //
   5:c:\program files\daisytoolchain\arm-none-eabi\include\c++\10.2.1\bits\allocator.h **** // This file is part of the GNU ISO C++ Library.  This library is free
   6:c:\program files\daisytoolchain\arm-none-eabi\include\c++\10.2.1\bits\allocator.h **** // software; you can redistribute it and/or modify it under the
   7:c:\program files\daisytoolchain\arm-none-eabi\include\c++\10.2.1\bits\allocator.h **** // terms of the GNU General Public License as published by the
   8:c:\program files\daisytoolchain\arm-none-eabi\include\c++\10.2.1\bits\allocator.h **** // Free Software Foundation; either version 3, or (at your option)
   9:c:\program files\daisytoolchain\arm-none-eabi\include\c++\10.2.1\bits\allocator.h **** // any later version.
  10:c:\program files\daisytoolchain\arm-none-eabi\include\c++\10.2.1\bits\allocator.h **** 
  11:c:\program files\daisytoolchain\arm-none-eabi\include\c++\10.2.1\bits\allocator.h **** // This library is distributed in the hope that it will be useful,
  12:c:\program files\daisytoolchain\arm-none-eabi\include\c++\10.2.1\bits\allocator.h **** // but WITHOUT ANY WARRANTY; without even the implied warranty of
  13:c:\program files\daisytoolchain\arm-none-eabi\include\c++\10.2.1\bits\allocator.h **** // MERCHANTABILITY or FITNESS FOR A PARTICULAR PURPOSE.  See the
  14:c:\program files\daisytoolchain\arm-none-eabi\include\c++\10.2.1\bits\allocator.h **** // GNU General Public License for more details.
  15:c:\program files\daisytoolchain\arm-none-eabi\include\c++\10.2.1\bits\allocator.h **** 
  16:c:\program files\daisytoolchain\arm-none-eabi\include\c++\10.2.1\bits\allocator.h **** // Under Section 7 of GPL version 3, you are granted additional
  17:c:\program files\daisytoolchain\arm-none-eabi\include\c++\10.2.1\bits\allocator.h **** // permissions described in the GCC Runtime Library Exception, version
  18:c:\program files\daisytoolchain\arm-none-eabi\include\c++\10.2.1\bits\allocator.h **** // 3.1, as published by the Free Software Foundation.
  19:c:\program files\daisytoolchain\arm-none-eabi\include\c++\10.2.1\bits\allocator.h **** 
  20:c:\program files\daisytoolchain\arm-none-eabi\include\c++\10.2.1\bits\allocator.h **** // You should have received a copy of the GNU General Public License and
  21:c:\program files\daisytoolchain\arm-none-eabi\include\c++\10.2.1\bits\allocator.h **** // a copy of the GCC Runtime Library Exception along with this program;
  22:c:\program files\daisytoolchain\arm-none-eabi\include\c++\10.2.1\bits\allocator.h **** // see the files COPYING3 and COPYING.RUNTIME respectively.  If not, see
  23:c:\program files\daisytoolchain\arm-none-eabi\include\c++\10.2.1\bits\allocator.h **** // <http://www.gnu.org/licenses/>.
  24:c:\program files\daisytoolchain\arm-none-eabi\include\c++\10.2.1\bits\allocator.h **** 
  25:c:\program files\daisytoolchain\arm-none-eabi\include\c++\10.2.1\bits\allocator.h **** /*
  26:c:\program files\daisytoolchain\arm-none-eabi\include\c++\10.2.1\bits\allocator.h ****  * Copyright (c) 1996-1997
  27:c:\program files\daisytoolchain\arm-none-eabi\include\c++\10.2.1\bits\allocator.h ****  * Silicon Graphics Computer Systems, Inc.
  28:c:\program files\daisytoolchain\arm-none-eabi\include\c++\10.2.1\bits\allocator.h ****  *
  29:c:\program files\daisytoolchain\arm-none-eabi\include\c++\10.2.1\bits\allocator.h ****  * Permission to use, copy, modify, distribute and sell this software
  30:c:\program files\daisytoolchain\arm-none-eabi\include\c++\10.2.1\bits\allocator.h ****  * and its documentation for any purpose is hereby granted without fee,
  31:c:\program files\daisytoolchain\arm-none-eabi\include\c++\10.2.1\bits\allocator.h ****  * provided that the above copyright notice appear in all copies and
  32:c:\program files\daisytoolchain\arm-none-eabi\include\c++\10.2.1\bits\allocator.h ****  * that both that copyright notice and this permission notice appear
  33:c:\program files\daisytoolchain\arm-none-eabi\include\c++\10.2.1\bits\allocator.h ****  * in supporting documentation.  Silicon Graphics makes no
  34:c:\program files\daisytoolchain\arm-none-eabi\include\c++\10.2.1\bits\allocator.h ****  * representations about the suitability of this software for any
  35:c:\program files\daisytoolchain\arm-none-eabi\include\c++\10.2.1\bits\allocator.h ****  * purpose.  It is provided "as is" without express or implied warranty.
  36:c:\program files\daisytoolchain\arm-none-eabi\include\c++\10.2.1\bits\allocator.h ****  */
  37:c:\program files\daisytoolchain\arm-none-eabi\include\c++\10.2.1\bits\allocator.h **** 
  38:c:\program files\daisytoolchain\arm-none-eabi\include\c++\10.2.1\bits\allocator.h **** /** @file bits/allocator.h
  39:c:\program files\daisytoolchain\arm-none-eabi\include\c++\10.2.1\bits\allocator.h ****  *  This is an internal header file, included by other library headers.
  40:c:\program files\daisytoolchain\arm-none-eabi\include\c++\10.2.1\bits\allocator.h ****  *  Do not attempt to use it directly. @headername{memory}
  41:c:\program files\daisytoolchain\arm-none-eabi\include\c++\10.2.1\bits\allocator.h ****  */
  42:c:\program files\daisytoolchain\arm-none-eabi\include\c++\10.2.1\bits\allocator.h **** 
  43:c:\program files\daisytoolchain\arm-none-eabi\include\c++\10.2.1\bits\allocator.h **** #ifndef _ALLOCATOR_H
  44:c:\program files\daisytoolchain\arm-none-eabi\include\c++\10.2.1\bits\allocator.h **** #define _ALLOCATOR_H 1
  45:c:\program files\daisytoolchain\arm-none-eabi\include\c++\10.2.1\bits\allocator.h **** 
  46:c:\program files\daisytoolchain\arm-none-eabi\include\c++\10.2.1\bits\allocator.h **** #include <bits/c++allocator.h> // Define the base class to std::allocator.
ARM GAS  C:\Users\Estudi\AppData\Local\Temp\ccgnIlRK.s 			page 47


  47:c:\program files\daisytoolchain\arm-none-eabi\include\c++\10.2.1\bits\allocator.h **** #include <bits/memoryfwd.h>
  48:c:\program files\daisytoolchain\arm-none-eabi\include\c++\10.2.1\bits\allocator.h **** #if __cplusplus >= 201103L
  49:c:\program files\daisytoolchain\arm-none-eabi\include\c++\10.2.1\bits\allocator.h **** #include <type_traits>
  50:c:\program files\daisytoolchain\arm-none-eabi\include\c++\10.2.1\bits\allocator.h **** #endif
  51:c:\program files\daisytoolchain\arm-none-eabi\include\c++\10.2.1\bits\allocator.h **** 
  52:c:\program files\daisytoolchain\arm-none-eabi\include\c++\10.2.1\bits\allocator.h **** #define __cpp_lib_incomplete_container_elements 201505
  53:c:\program files\daisytoolchain\arm-none-eabi\include\c++\10.2.1\bits\allocator.h **** 
  54:c:\program files\daisytoolchain\arm-none-eabi\include\c++\10.2.1\bits\allocator.h **** namespace std _GLIBCXX_VISIBILITY(default)
  55:c:\program files\daisytoolchain\arm-none-eabi\include\c++\10.2.1\bits\allocator.h **** {
  56:c:\program files\daisytoolchain\arm-none-eabi\include\c++\10.2.1\bits\allocator.h **** _GLIBCXX_BEGIN_NAMESPACE_VERSION
  57:c:\program files\daisytoolchain\arm-none-eabi\include\c++\10.2.1\bits\allocator.h **** 
  58:c:\program files\daisytoolchain\arm-none-eabi\include\c++\10.2.1\bits\allocator.h ****   /**
  59:c:\program files\daisytoolchain\arm-none-eabi\include\c++\10.2.1\bits\allocator.h ****    *  @addtogroup allocators
  60:c:\program files\daisytoolchain\arm-none-eabi\include\c++\10.2.1\bits\allocator.h ****    *  @{
  61:c:\program files\daisytoolchain\arm-none-eabi\include\c++\10.2.1\bits\allocator.h ****    */
  62:c:\program files\daisytoolchain\arm-none-eabi\include\c++\10.2.1\bits\allocator.h **** 
  63:c:\program files\daisytoolchain\arm-none-eabi\include\c++\10.2.1\bits\allocator.h ****   /// allocator<void> specialization.
  64:c:\program files\daisytoolchain\arm-none-eabi\include\c++\10.2.1\bits\allocator.h ****   template<>
  65:c:\program files\daisytoolchain\arm-none-eabi\include\c++\10.2.1\bits\allocator.h ****     class allocator<void>
  66:c:\program files\daisytoolchain\arm-none-eabi\include\c++\10.2.1\bits\allocator.h ****     {
  67:c:\program files\daisytoolchain\arm-none-eabi\include\c++\10.2.1\bits\allocator.h ****     public:
  68:c:\program files\daisytoolchain\arm-none-eabi\include\c++\10.2.1\bits\allocator.h ****       typedef void        value_type;
  69:c:\program files\daisytoolchain\arm-none-eabi\include\c++\10.2.1\bits\allocator.h ****       typedef size_t      size_type;
  70:c:\program files\daisytoolchain\arm-none-eabi\include\c++\10.2.1\bits\allocator.h ****       typedef ptrdiff_t   difference_type;
  71:c:\program files\daisytoolchain\arm-none-eabi\include\c++\10.2.1\bits\allocator.h **** #if __cplusplus <= 201703L
  72:c:\program files\daisytoolchain\arm-none-eabi\include\c++\10.2.1\bits\allocator.h ****       typedef void*       pointer;
  73:c:\program files\daisytoolchain\arm-none-eabi\include\c++\10.2.1\bits\allocator.h ****       typedef const void* const_pointer;
  74:c:\program files\daisytoolchain\arm-none-eabi\include\c++\10.2.1\bits\allocator.h **** 
  75:c:\program files\daisytoolchain\arm-none-eabi\include\c++\10.2.1\bits\allocator.h ****       template<typename _Tp1>
  76:c:\program files\daisytoolchain\arm-none-eabi\include\c++\10.2.1\bits\allocator.h **** 	struct rebind
  77:c:\program files\daisytoolchain\arm-none-eabi\include\c++\10.2.1\bits\allocator.h **** 	{ typedef allocator<_Tp1> other; };
  78:c:\program files\daisytoolchain\arm-none-eabi\include\c++\10.2.1\bits\allocator.h **** #else
  79:c:\program files\daisytoolchain\arm-none-eabi\include\c++\10.2.1\bits\allocator.h ****       allocator() = default;
  80:c:\program files\daisytoolchain\arm-none-eabi\include\c++\10.2.1\bits\allocator.h **** 
  81:c:\program files\daisytoolchain\arm-none-eabi\include\c++\10.2.1\bits\allocator.h ****       template<typename _Up>
  82:c:\program files\daisytoolchain\arm-none-eabi\include\c++\10.2.1\bits\allocator.h **** 	constexpr
  83:c:\program files\daisytoolchain\arm-none-eabi\include\c++\10.2.1\bits\allocator.h **** 	allocator(const allocator<_Up>&) { }
  84:c:\program files\daisytoolchain\arm-none-eabi\include\c++\10.2.1\bits\allocator.h **** #endif // ! C++20
  85:c:\program files\daisytoolchain\arm-none-eabi\include\c++\10.2.1\bits\allocator.h **** 
  86:c:\program files\daisytoolchain\arm-none-eabi\include\c++\10.2.1\bits\allocator.h **** #if __cplusplus >= 201103L && __cplusplus <= 201703L
  87:c:\program files\daisytoolchain\arm-none-eabi\include\c++\10.2.1\bits\allocator.h ****       // _GLIBCXX_RESOLVE_LIB_DEFECTS
  88:c:\program files\daisytoolchain\arm-none-eabi\include\c++\10.2.1\bits\allocator.h ****       // 2103. std::allocator propagate_on_container_move_assignment
  89:c:\program files\daisytoolchain\arm-none-eabi\include\c++\10.2.1\bits\allocator.h ****       typedef true_type propagate_on_container_move_assignment;
  90:c:\program files\daisytoolchain\arm-none-eabi\include\c++\10.2.1\bits\allocator.h **** 
  91:c:\program files\daisytoolchain\arm-none-eabi\include\c++\10.2.1\bits\allocator.h ****       typedef true_type is_always_equal;
  92:c:\program files\daisytoolchain\arm-none-eabi\include\c++\10.2.1\bits\allocator.h **** 
  93:c:\program files\daisytoolchain\arm-none-eabi\include\c++\10.2.1\bits\allocator.h ****       template<typename _Up, typename... _Args>
  94:c:\program files\daisytoolchain\arm-none-eabi\include\c++\10.2.1\bits\allocator.h **** 	void
  95:c:\program files\daisytoolchain\arm-none-eabi\include\c++\10.2.1\bits\allocator.h **** 	construct(_Up* __p, _Args&&... __args)
  96:c:\program files\daisytoolchain\arm-none-eabi\include\c++\10.2.1\bits\allocator.h **** 	noexcept(std::is_nothrow_constructible<_Up, _Args...>::value)
  97:c:\program files\daisytoolchain\arm-none-eabi\include\c++\10.2.1\bits\allocator.h **** 	{ ::new((void *)__p) _Up(std::forward<_Args>(__args)...); }
  98:c:\program files\daisytoolchain\arm-none-eabi\include\c++\10.2.1\bits\allocator.h **** 
  99:c:\program files\daisytoolchain\arm-none-eabi\include\c++\10.2.1\bits\allocator.h ****       template<typename _Up>
 100:c:\program files\daisytoolchain\arm-none-eabi\include\c++\10.2.1\bits\allocator.h **** 	void
 101:c:\program files\daisytoolchain\arm-none-eabi\include\c++\10.2.1\bits\allocator.h **** 	destroy(_Up* __p)
 102:c:\program files\daisytoolchain\arm-none-eabi\include\c++\10.2.1\bits\allocator.h **** 	noexcept(std::is_nothrow_destructible<_Up>::value)
 103:c:\program files\daisytoolchain\arm-none-eabi\include\c++\10.2.1\bits\allocator.h **** 	{ __p->~_Up(); }
ARM GAS  C:\Users\Estudi\AppData\Local\Temp\ccgnIlRK.s 			page 48


 104:c:\program files\daisytoolchain\arm-none-eabi\include\c++\10.2.1\bits\allocator.h **** #endif // C++11 to C++17
 105:c:\program files\daisytoolchain\arm-none-eabi\include\c++\10.2.1\bits\allocator.h ****     };
 106:c:\program files\daisytoolchain\arm-none-eabi\include\c++\10.2.1\bits\allocator.h **** 
 107:c:\program files\daisytoolchain\arm-none-eabi\include\c++\10.2.1\bits\allocator.h ****   /**
 108:c:\program files\daisytoolchain\arm-none-eabi\include\c++\10.2.1\bits\allocator.h ****    * @brief  The @a standard allocator, as per [20.4].
 109:c:\program files\daisytoolchain\arm-none-eabi\include\c++\10.2.1\bits\allocator.h ****    *
 110:c:\program files\daisytoolchain\arm-none-eabi\include\c++\10.2.1\bits\allocator.h ****    *  See https://gcc.gnu.org/onlinedocs/libstdc++/manual/memory.html#std.util.memory.allocator
 111:c:\program files\daisytoolchain\arm-none-eabi\include\c++\10.2.1\bits\allocator.h ****    *  for further details.
 112:c:\program files\daisytoolchain\arm-none-eabi\include\c++\10.2.1\bits\allocator.h ****    *
 113:c:\program files\daisytoolchain\arm-none-eabi\include\c++\10.2.1\bits\allocator.h ****    *  @tparam  _Tp  Type of allocated object.
 114:c:\program files\daisytoolchain\arm-none-eabi\include\c++\10.2.1\bits\allocator.h ****    */
 115:c:\program files\daisytoolchain\arm-none-eabi\include\c++\10.2.1\bits\allocator.h ****   template<typename _Tp>
 116:c:\program files\daisytoolchain\arm-none-eabi\include\c++\10.2.1\bits\allocator.h ****     class allocator : public __allocator_base<_Tp>
 117:c:\program files\daisytoolchain\arm-none-eabi\include\c++\10.2.1\bits\allocator.h ****     {
 118:c:\program files\daisytoolchain\arm-none-eabi\include\c++\10.2.1\bits\allocator.h ****     public:
 119:c:\program files\daisytoolchain\arm-none-eabi\include\c++\10.2.1\bits\allocator.h ****       typedef _Tp        value_type;
 120:c:\program files\daisytoolchain\arm-none-eabi\include\c++\10.2.1\bits\allocator.h ****       typedef size_t     size_type;
 121:c:\program files\daisytoolchain\arm-none-eabi\include\c++\10.2.1\bits\allocator.h ****       typedef ptrdiff_t  difference_type;
 122:c:\program files\daisytoolchain\arm-none-eabi\include\c++\10.2.1\bits\allocator.h **** #if __cplusplus <= 201703L
 123:c:\program files\daisytoolchain\arm-none-eabi\include\c++\10.2.1\bits\allocator.h ****       typedef _Tp*       pointer;
 124:c:\program files\daisytoolchain\arm-none-eabi\include\c++\10.2.1\bits\allocator.h ****       typedef const _Tp* const_pointer;
 125:c:\program files\daisytoolchain\arm-none-eabi\include\c++\10.2.1\bits\allocator.h ****       typedef _Tp&       reference;
 126:c:\program files\daisytoolchain\arm-none-eabi\include\c++\10.2.1\bits\allocator.h ****       typedef const _Tp& const_reference;
 127:c:\program files\daisytoolchain\arm-none-eabi\include\c++\10.2.1\bits\allocator.h **** 
 128:c:\program files\daisytoolchain\arm-none-eabi\include\c++\10.2.1\bits\allocator.h ****       template<typename _Tp1>
 129:c:\program files\daisytoolchain\arm-none-eabi\include\c++\10.2.1\bits\allocator.h **** 	struct rebind
 130:c:\program files\daisytoolchain\arm-none-eabi\include\c++\10.2.1\bits\allocator.h **** 	{ typedef allocator<_Tp1> other; };
 131:c:\program files\daisytoolchain\arm-none-eabi\include\c++\10.2.1\bits\allocator.h **** #endif
 132:c:\program files\daisytoolchain\arm-none-eabi\include\c++\10.2.1\bits\allocator.h **** 
 133:c:\program files\daisytoolchain\arm-none-eabi\include\c++\10.2.1\bits\allocator.h **** #if __cplusplus >= 201103L
 134:c:\program files\daisytoolchain\arm-none-eabi\include\c++\10.2.1\bits\allocator.h ****       // _GLIBCXX_RESOLVE_LIB_DEFECTS
 135:c:\program files\daisytoolchain\arm-none-eabi\include\c++\10.2.1\bits\allocator.h ****       // 2103. std::allocator propagate_on_container_move_assignment
 136:c:\program files\daisytoolchain\arm-none-eabi\include\c++\10.2.1\bits\allocator.h ****       typedef true_type propagate_on_container_move_assignment;
 137:c:\program files\daisytoolchain\arm-none-eabi\include\c++\10.2.1\bits\allocator.h **** 
 138:c:\program files\daisytoolchain\arm-none-eabi\include\c++\10.2.1\bits\allocator.h ****       typedef true_type is_always_equal;
 139:c:\program files\daisytoolchain\arm-none-eabi\include\c++\10.2.1\bits\allocator.h **** #endif
 140:c:\program files\daisytoolchain\arm-none-eabi\include\c++\10.2.1\bits\allocator.h **** 
 141:c:\program files\daisytoolchain\arm-none-eabi\include\c++\10.2.1\bits\allocator.h ****       // _GLIBCXX_RESOLVE_LIB_DEFECTS
 142:c:\program files\daisytoolchain\arm-none-eabi\include\c++\10.2.1\bits\allocator.h ****       // 3035. std::allocator's constructors should be constexpr
 143:c:\program files\daisytoolchain\arm-none-eabi\include\c++\10.2.1\bits\allocator.h ****       _GLIBCXX20_CONSTEXPR
 144:c:\program files\daisytoolchain\arm-none-eabi\include\c++\10.2.1\bits\allocator.h ****       allocator() _GLIBCXX_NOTHROW { }
 423              		.loc 5 144 7 view .LVU109
 424              	.LBB259:
 425              	.LBI259:
 426              		.file 6 "c:\\program files\\daisytoolchain\\arm-none-eabi\\include\\c++\\10.2.1\\ext\\new_allocato
   1:c:\program files\daisytoolchain\arm-none-eabi\include\c++\10.2.1\ext\new_allocator.h **** // Allocator that wraps operator new -*- C++ -*-
   2:c:\program files\daisytoolchain\arm-none-eabi\include\c++\10.2.1\ext\new_allocator.h **** 
   3:c:\program files\daisytoolchain\arm-none-eabi\include\c++\10.2.1\ext\new_allocator.h **** // Copyright (C) 2001-2020 Free Software Foundation, Inc.
   4:c:\program files\daisytoolchain\arm-none-eabi\include\c++\10.2.1\ext\new_allocator.h **** //
   5:c:\program files\daisytoolchain\arm-none-eabi\include\c++\10.2.1\ext\new_allocator.h **** // This file is part of the GNU ISO C++ Library.  This library is free
   6:c:\program files\daisytoolchain\arm-none-eabi\include\c++\10.2.1\ext\new_allocator.h **** // software; you can redistribute it and/or modify it under the
   7:c:\program files\daisytoolchain\arm-none-eabi\include\c++\10.2.1\ext\new_allocator.h **** // terms of the GNU General Public License as published by the
   8:c:\program files\daisytoolchain\arm-none-eabi\include\c++\10.2.1\ext\new_allocator.h **** // Free Software Foundation; either version 3, or (at your option)
   9:c:\program files\daisytoolchain\arm-none-eabi\include\c++\10.2.1\ext\new_allocator.h **** // any later version.
  10:c:\program files\daisytoolchain\arm-none-eabi\include\c++\10.2.1\ext\new_allocator.h **** 
  11:c:\program files\daisytoolchain\arm-none-eabi\include\c++\10.2.1\ext\new_allocator.h **** // This library is distributed in the hope that it will be useful,
  12:c:\program files\daisytoolchain\arm-none-eabi\include\c++\10.2.1\ext\new_allocator.h **** // but WITHOUT ANY WARRANTY; without even the implied warranty of
ARM GAS  C:\Users\Estudi\AppData\Local\Temp\ccgnIlRK.s 			page 49


  13:c:\program files\daisytoolchain\arm-none-eabi\include\c++\10.2.1\ext\new_allocator.h **** // MERCHANTABILITY or FITNESS FOR A PARTICULAR PURPOSE.  See the
  14:c:\program files\daisytoolchain\arm-none-eabi\include\c++\10.2.1\ext\new_allocator.h **** // GNU General Public License for more details.
  15:c:\program files\daisytoolchain\arm-none-eabi\include\c++\10.2.1\ext\new_allocator.h **** 
  16:c:\program files\daisytoolchain\arm-none-eabi\include\c++\10.2.1\ext\new_allocator.h **** // Under Section 7 of GPL version 3, you are granted additional
  17:c:\program files\daisytoolchain\arm-none-eabi\include\c++\10.2.1\ext\new_allocator.h **** // permissions described in the GCC Runtime Library Exception, version
  18:c:\program files\daisytoolchain\arm-none-eabi\include\c++\10.2.1\ext\new_allocator.h **** // 3.1, as published by the Free Software Foundation.
  19:c:\program files\daisytoolchain\arm-none-eabi\include\c++\10.2.1\ext\new_allocator.h **** 
  20:c:\program files\daisytoolchain\arm-none-eabi\include\c++\10.2.1\ext\new_allocator.h **** // You should have received a copy of the GNU General Public License and
  21:c:\program files\daisytoolchain\arm-none-eabi\include\c++\10.2.1\ext\new_allocator.h **** // a copy of the GCC Runtime Library Exception along with this program;
  22:c:\program files\daisytoolchain\arm-none-eabi\include\c++\10.2.1\ext\new_allocator.h **** // see the files COPYING3 and COPYING.RUNTIME respectively.  If not, see
  23:c:\program files\daisytoolchain\arm-none-eabi\include\c++\10.2.1\ext\new_allocator.h **** // <http://www.gnu.org/licenses/>.
  24:c:\program files\daisytoolchain\arm-none-eabi\include\c++\10.2.1\ext\new_allocator.h **** 
  25:c:\program files\daisytoolchain\arm-none-eabi\include\c++\10.2.1\ext\new_allocator.h **** /** @file ext/new_allocator.h
  26:c:\program files\daisytoolchain\arm-none-eabi\include\c++\10.2.1\ext\new_allocator.h ****  *  This file is a GNU extension to the Standard C++ Library.
  27:c:\program files\daisytoolchain\arm-none-eabi\include\c++\10.2.1\ext\new_allocator.h ****  */
  28:c:\program files\daisytoolchain\arm-none-eabi\include\c++\10.2.1\ext\new_allocator.h **** 
  29:c:\program files\daisytoolchain\arm-none-eabi\include\c++\10.2.1\ext\new_allocator.h **** #ifndef _NEW_ALLOCATOR_H
  30:c:\program files\daisytoolchain\arm-none-eabi\include\c++\10.2.1\ext\new_allocator.h **** #define _NEW_ALLOCATOR_H 1
  31:c:\program files\daisytoolchain\arm-none-eabi\include\c++\10.2.1\ext\new_allocator.h **** 
  32:c:\program files\daisytoolchain\arm-none-eabi\include\c++\10.2.1\ext\new_allocator.h **** #include <bits/c++config.h>
  33:c:\program files\daisytoolchain\arm-none-eabi\include\c++\10.2.1\ext\new_allocator.h **** #include <new>
  34:c:\program files\daisytoolchain\arm-none-eabi\include\c++\10.2.1\ext\new_allocator.h **** #include <bits/functexcept.h>
  35:c:\program files\daisytoolchain\arm-none-eabi\include\c++\10.2.1\ext\new_allocator.h **** #include <bits/move.h>
  36:c:\program files\daisytoolchain\arm-none-eabi\include\c++\10.2.1\ext\new_allocator.h **** #if __cplusplus >= 201103L
  37:c:\program files\daisytoolchain\arm-none-eabi\include\c++\10.2.1\ext\new_allocator.h **** #include <type_traits>
  38:c:\program files\daisytoolchain\arm-none-eabi\include\c++\10.2.1\ext\new_allocator.h **** #endif
  39:c:\program files\daisytoolchain\arm-none-eabi\include\c++\10.2.1\ext\new_allocator.h **** 
  40:c:\program files\daisytoolchain\arm-none-eabi\include\c++\10.2.1\ext\new_allocator.h **** namespace __gnu_cxx _GLIBCXX_VISIBILITY(default)
  41:c:\program files\daisytoolchain\arm-none-eabi\include\c++\10.2.1\ext\new_allocator.h **** {
  42:c:\program files\daisytoolchain\arm-none-eabi\include\c++\10.2.1\ext\new_allocator.h **** _GLIBCXX_BEGIN_NAMESPACE_VERSION
  43:c:\program files\daisytoolchain\arm-none-eabi\include\c++\10.2.1\ext\new_allocator.h **** 
  44:c:\program files\daisytoolchain\arm-none-eabi\include\c++\10.2.1\ext\new_allocator.h ****   /**
